
TinyBas.elf:     file format elf32-littleriscv
TinyBas.elf
architecture: riscv:rv32, flags 0x00000112:
EXEC_P, HAS_SYMS, D_PAGED
start address 0x00000000

Program Header:
    LOAD off    0x00001000 vaddr 0x00000000 paddr 0x00000000 align 2**12
         filesz 0x00003828 memsz 0x00003828 flags r-x
    LOAD off    0x00005000 vaddr 0x20000000 paddr 0x00003828 align 2**12
         filesz 0x00000038 memsz 0x000005d8 flags rw-
    LOAD off    0x00005700 vaddr 0x20000700 paddr 0x20000700 align 2**12
         filesz 0x00000000 memsz 0x00000100 flags rw-

Sections:
Idx Name          Size      VMA       LMA       File off  Algn
  0 .init         000000a0  00000000  00000000  00001000  2**2
                  CONTENTS, ALLOC, LOAD, READONLY, CODE
  1 .text         00003788  000000a0  000000a0  000010a0  2**2
                  CONTENTS, ALLOC, LOAD, READONLY, CODE
  2 .fini         00000000  00003828  00003828  00005038  2**0
                  CONTENTS, ALLOC, LOAD, CODE
  3 .dalign       00000000  20000000  20000000  00005038  2**0
                  CONTENTS
  4 .dlalign      00000000  00003828  00003828  00005038  2**0
                  CONTENTS
  5 .data         00000038  20000000  00003828  00005000  2**2
                  CONTENTS, ALLOC, LOAD, DATA
  6 .bss          000005a0  20000038  00003860  00005038  2**2
                  ALLOC
  7 .stack        00000100  20000700  20000700  00005700  2**0
                  ALLOC
  8 .debug_info   0000f2a7  00000000  00000000  00005038  2**0
                  CONTENTS, READONLY, DEBUGGING
  9 .debug_abbrev 00002740  00000000  00000000  000142df  2**0
                  CONTENTS, READONLY, DEBUGGING
 10 .debug_aranges 000008b8  00000000  00000000  00016a20  2**3
                  CONTENTS, READONLY, DEBUGGING
 11 .debug_ranges 00000bc8  00000000  00000000  000172d8  2**3
                  CONTENTS, READONLY, DEBUGGING
 12 .debug_line   0000e4f4  00000000  00000000  00017ea0  2**0
                  CONTENTS, READONLY, DEBUGGING
 13 .debug_str    00002c93  00000000  00000000  00026394  2**0
                  CONTENTS, READONLY, DEBUGGING
 14 .comment      00000033  00000000  00000000  00029027  2**0
                  CONTENTS, READONLY
 15 .debug_frame  000013a8  00000000  00000000  0002905c  2**2
                  CONTENTS, READONLY, DEBUGGING
 16 .debug_loc    00004a42  00000000  00000000  0002a404  2**0
                  CONTENTS, READONLY, DEBUGGING
SYMBOL TABLE:
00000000 l    d  .init	00000000 .init
000000a0 l    d  .text	00000000 .text
00003828 l    d  .fini	00000000 .fini
20000000 l    d  .dalign	00000000 .dalign
00003828 l    d  .dlalign	00000000 .dlalign
20000000 l    d  .data	00000000 .data
20000038 l    d  .bss	00000000 .bss
20000700 l    d  .stack	00000000 .stack
00000000 l    d  .debug_info	00000000 .debug_info
00000000 l    d  .debug_abbrev	00000000 .debug_abbrev
00000000 l    d  .debug_aranges	00000000 .debug_aranges
00000000 l    d  .debug_ranges	00000000 .debug_ranges
00000000 l    d  .debug_line	00000000 .debug_line
00000000 l    d  .debug_str	00000000 .debug_str
00000000 l    d  .comment	00000000 .comment
00000000 l    d  .debug_frame	00000000 .debug_frame
00000000 l    d  .debug_loc	00000000 .debug_loc
00000000 l    df *ABS*	00000000 ch32v00x_it.c
00000000 l    df *ABS*	00000000 main.c
0000234e l       .text	00000000 shorttim
20000067 l     O .bss	00000001 KbdBitCnt
20000068 l     O .bss	00000002 KbdBuffer
2000006b l     O .bss	00000001 KbdReady
2000058e l     O .bss	00000002 dispPointer
0000304c l     O .text	000000bb CSWTCH.344
00000000 l    df *ABS*	00000000 system_ch32v00x.c
00000000 l    df *ABS*	00000000 ch32v00x_dma.c
00000000 l    df *ABS*	00000000 ch32v00x_exti.c
00000000 l    df *ABS*	00000000 ch32v00x_gpio.c
00000000 l    df *ABS*	00000000 ch32v00x_i2c.c
00000000 l    df *ABS*	00000000 ch32v00x_misc.c
00000000 l    df *ABS*	00000000 ch32v00x_rcc.c
20000014 l     O .data	00000014 ADCPrescTable
20000028 l     O .data	00000010 APBAHBPrescTable
00000000 l    df *ABS*	00000000 ch32v00x_spi.c
00000000 l    df *ABS*	00000000 ch32v00x_tim.c
00000000 l    df *ABS*	00000000 debug.c
200005d4 l     O .bss	00000002 p_ms
200005d6 l     O .bss	00000001 p_us
000011e8 g     F .text	0000003c RemoveNextWhtSP
200005ba g     O .bss	00000002 nDispChar
00001150 g     F .text	00000066 PrintBasLine
20000838 g       .data	00000000 __global_pointer$
000027cc  w      .text	00000000 TIM1_CC_IRQHandler
00002af4 g     F .text	00000008 I2C_ReceiveData
000001f4 g     F .text	00000002 HardFault_Handler
200005be g     O .bss	00000002 nVGAline
0000099a g     F .text	00000060 GPIO_InOut_INIT
000001f6 g     F .text	00000078 kbd_init
000027cc  w      .text	00000000 SysTick_Handler
00002b56 g     F .text	00000054 NVIC_Init
000027cc  w      .text	00000000 PVD_IRQHandler
000001f2 g     F .text	00000002 NMI_Handler
2000006d g     O .bss	00000001 RunMode
20000038 g       .bss	00000000 _sbss
00000100 g       *ABS*	00000000 __stack_size
00001066 g     F .text	000000ea I2C_read_line
00002856 g     F .text	00000038 DMA_Init
000000aa g     F .text	0000000a .hidden __riscv_restore_2
00000c4e g     F .text	0000010c TIM1_INT_Init
00002dd2 g     F .text	00000016 TIM_CtrlPWMOutputs
00002e14 g     F .text	00000016 TIM_OC4PreloadConfig
20000010 g     O .data	00000004 SystemCoreClock
000000d4 g     F .text	0000002c .hidden __udivsi3
20000038 g     O .bss	0000002f DMABuff
000000a0 g       .init	00000000 _einit
00002e42 g     F .text	0000000c TIM_ClearITPendingBit
00002c7c g     F .text	0000001e RCC_APB2PeriphClockCmd
00003108 g     O .text	00000400 CharTable
000028f8 g     F .text	0000007c GPIO_Init
200005d0 g     O .bss	00000004 NVIC_Priority_Group
000027cc  w      .text	00000000 SPI1_IRQHandler
000000a0 g     F .text	0000000a .hidden __riscv_save_1
000000aa g     F .text	0000000a .hidden __riscv_restore_0
000027cc  w      .text	00000000 AWU_IRQHandler
00001224 g     F .text	000000c4 isNumberNext
000009fa g     F .text	0000011e EXTI7_0_IRQHandler
00002c9a g     F .text	0000001e RCC_APB1PeriphClockCmd
20000700 g       .stack	00000000 _heap_end
2000058d g     O .bss	00000001 currentLine
200005c0 g     O .bss	00000001 noOfMemory
00002e82 g     F .text	0000003a Delay_Us
00002c5e g     F .text	0000001e RCC_AHBPeriphClockCmd
000027cc  w      .text	00000000 DMA1_Channel4_IRQHandler
00002af0 g     F .text	00000004 I2C_SendData
000027cc  w      .text	00000000 ADC1_IRQHandler
000029a8 g     F .text	000000e2 I2C_Init
2000006c g     O .bss	00000001 KbdStatus
200005d8 g       .bss	00000000 _ebss
000027cc  w      .text	00000000 DMA1_Channel7_IRQHandler
2000058c g     O .bss	00000001 compFlags
00002e4e g     F .text	00000034 Delay_Init
20000520 g     O .bss	00000004 basTimer
0000297e g     F .text	00000004 GPIO_SetBits
00002dfa g     F .text	0000001a TIM_ARRPreloadConfig
00000100 g     F .text	00000008 .hidden __umodsi3
00002aa2 g     F .text	0000001a I2C_GenerateSTART
0000064c g     F .text	0000005a GetKeyChar
000027cc  w      .text	00000000 I2C1_EV_IRQHandler
00000ff2 g     F .text	00000074 I2C_write_line
00002e2a g     F .text	00000018 TIM_GetITStatus
00002bbc g     F .text	000000a2 RCC_GetClocksFreq
000027cc  w      .text	00000000 DMA1_Channel6_IRQHandler
20000070 g     O .bss	00000320 VideoRAM
000027cc  w      .text	00000000 RCC_IRQHandler
000027cc  w      .text	00000000 TIM1_TRG_COM_IRQHandler
000027cc  w      .text	00000000 DMA1_Channel1_IRQHandler
000006a6 g     F .text	000001bc WriteChar
00000000 g       .init	00000000 _start
00003508 g     O .text	000000e0 KeyWordTab
20000000 g     O .data	00000010 AHBPrescTable
00002b24 g     F .text	00000032 I2C_GetFlagStatus
00000f34 g     F .text	000000be I2C_write_address
00002de8 g     F .text	00000012 TIM_ITConfig
0000288e g     F .text	0000006a EXTI_Init
000000b4 g     F .text	00000014 .hidden __mulsi3
00000862 g     F .text	0000001a WriteText
00002a8a g     F .text	00000018 I2C_Cmd
00002982 g     F .text	00000004 GPIO_ResetBits
200005c8 g     O .bss	00000008 stack_buffer
20000000 g       .dalign	00000000 _data_vma
00002d64 g     F .text	0000006e TIM_OC4Init
000013c0 g     F .text	0000000e isFactor
00001454 g     F .text	000000ae isExpression
00002986 g     F .text	00000022 GPIO_EXTILineConfig
00002afc g     F .text	00000012 I2C_Send7bitAddress
0000014a g     F .text	000000a8 memset
00000940 g     F .text	0000005a DMA_Tx_Init
00002baa g     F .text	00000012 RCC_AdjustHSICalibrationValue
00002306 g     F .text	00000326 main
0000026e g     F .text	000003de kbdRead
0000087c g     F .text	0000001e WriteTextln
20000598 g     O .bss	00000021 line_buffer
00000e08 g     F .text	00000080 IIC_Init
00002d04 g     F .text	00000012 SPI_I2S_DMACmd
000011b6 g     F .text	00000032 RemoveWhtSP
000027cc  w      .text	00000000 DMA1_Channel5_IRQHandler
000000cc g     F .text	00000058 .hidden __divsi3
00002ebc g     F .text	0000003a Delay_Ms
00000e88 g     F .text	000000ac CheckI2CDevice
00001502 g     F .text	00000e04 Statement
00002cea g     F .text	0000001a SPI_Cmd
0000262c g     F .text	00000134 SystemInit
0000089a g     F .text	00000070 WriteNum
00000000 g       .init	00000000 _sinit
000027cc  w      .text	00000000 DMA1_Channel3_IRQHandler
00000b18 g     F .text	00000136 TIM1_UP_IRQHandler
00000d5a g     F .text	000000ae adc_init
000013ce g     F .text	00000086 isTerm
000027cc  w      .text	00000000 WWDG_IRQHandler
200005c2 g     O .bss	00000002 rowPointer
000027cc  w      .text	00000000 TIM2_IRQHandler
20000800 g       .stack	00000000 _eusrstack
000000a0 g     F .text	0000000a .hidden __riscv_save_2
000027cc  w      .text	00000000 SW_Handler
20000524 g     O .bss	00000068 charVariable
000027cc  w      .text	00000000 TIM1_BRK_IRQHandler
0000090a g     F .text	00000036 WriteErrMsg
20000038 g       .data	00000000 _edata
200005d8 g       .bss	00000000 _end
00002d16 g     F .text	0000004e TIM_TimeBaseInit
00003828 g       .dlalign	00000000 _data_lma
20000390 g     O .bss	00000190 arrayVariable
00002760 g     F .text	0000006c SystemCoreClockUpdate
00000124 g     F .text	00000024 .hidden __modsi3
000027cc  w      .text	00000000 DMA1_Channel2_IRQHandler
000012e8 g     F .text	000000d8 isVariableNext
2000006a g     O .bss	00000001 KbdData
000027ce  w      .text	00000000 handle_reset
000027cc  w      .text	00000000 FLASH_IRQHandler
000000a0 g     F .text	0000000a .hidden __riscv_save_0
20000590 g     O .bss	00000004 evalNumber
000027cc  w      .text	00000000 USART1_IRQHandler
00002ad6 g     F .text	0000001a I2C_AcknowledgeConfig
00002b0e g     F .text	00000016 I2C_CheckEvent
00002abc g     F .text	0000001a I2C_GenerateSTOP
000027cc  w      .text	00000000 I2C1_ER_IRQHandler
20000594 g     O .bss	00000001 linePointer
00002cb8 g     F .text	00000032 SPI_Init
000000aa g     F .text	0000000a .hidden __riscv_restore_1
00002974 g     F .text	0000000a GPIO_ReadInputDataBit
200005c4 g     O .bss	00000001 stackPointer
200005bc g     O .bss	00000002 nProcesChar



Disassembly of section .init:

00000000 <_sinit>:
   0:	7ce0206f          	j	27ce <handle_reset>
   4:	0000                	unimp
   6:	0000                	unimp
   8:	01f2                	slli	gp,gp,0x1c
   a:	0000                	unimp
   c:	01f4                	addi	a3,sp,204
	...
  2e:	0000                	unimp
  30:	27cc                	lbu	a1,12(a5)
  32:	0000                	unimp
  34:	0000                	unimp
  36:	0000                	unimp
  38:	27cc                	lbu	a1,12(a5)
  3a:	0000                	unimp
  3c:	0000                	unimp
  3e:	0000                	unimp
  40:	27cc                	lbu	a1,12(a5)
  42:	0000                	unimp
  44:	27cc                	lbu	a1,12(a5)
  46:	0000                	unimp
  48:	27cc                	lbu	a1,12(a5)
  4a:	0000                	unimp
  4c:	27cc                	lbu	a1,12(a5)
  4e:	0000                	unimp
  50:	09fa                	slli	s3,s3,0x1e
  52:	0000                	unimp
  54:	27cc                	lbu	a1,12(a5)
  56:	0000                	unimp
  58:	27cc                	lbu	a1,12(a5)
  5a:	0000                	unimp
  5c:	27cc                	lbu	a1,12(a5)
  5e:	0000                	unimp
  60:	27cc                	lbu	a1,12(a5)
  62:	0000                	unimp
  64:	27cc                	lbu	a1,12(a5)
  66:	0000                	unimp
  68:	27cc                	lbu	a1,12(a5)
  6a:	0000                	unimp
  6c:	27cc                	lbu	a1,12(a5)
  6e:	0000                	unimp
  70:	27cc                	lbu	a1,12(a5)
  72:	0000                	unimp
  74:	27cc                	lbu	a1,12(a5)
  76:	0000                	unimp
  78:	27cc                	lbu	a1,12(a5)
  7a:	0000                	unimp
  7c:	27cc                	lbu	a1,12(a5)
  7e:	0000                	unimp
  80:	27cc                	lbu	a1,12(a5)
  82:	0000                	unimp
  84:	27cc                	lbu	a1,12(a5)
  86:	0000                	unimp
  88:	27cc                	lbu	a1,12(a5)
  8a:	0000                	unimp
  8c:	0b18                	addi	a4,sp,400
  8e:	0000                	unimp
  90:	27cc                	lbu	a1,12(a5)
  92:	0000                	unimp
  94:	27cc                	lbu	a1,12(a5)
  96:	0000                	unimp
  98:	27cc                	lbu	a1,12(a5)
  9a:	0000                	unimp
  9c:	0000                	unimp
	...

Disassembly of section .text:

000000a0 <__riscv_save_0>:
      a0:	1151                	addi	sp,sp,-12
      a2:	c026                	sw	s1,0(sp)
      a4:	c222                	sw	s0,4(sp)
      a6:	c406                	sw	ra,8(sp)
      a8:	8282                	jr	t0

000000aa <__riscv_restore_0>:
      aa:	4482                	lw	s1,0(sp)
      ac:	4412                	lw	s0,4(sp)
      ae:	40a2                	lw	ra,8(sp)
      b0:	0131                	addi	sp,sp,12
      b2:	8082                	ret

000000b4 <__mulsi3>:
      b4:	862a                	mv	a2,a0
      b6:	4501                	li	a0,0
      b8:	0015f693          	andi	a3,a1,1
      bc:	c291                	beqz	a3,c0 <__mulsi3+0xc>
      be:	9532                	add	a0,a0,a2
      c0:	8185                	srli	a1,a1,0x1
      c2:	0606                	slli	a2,a2,0x1
      c4:	f9f5                	bnez	a1,b8 <__mulsi3+0x4>
      c6:	8082                	ret
      c8:	0000                	unimp
	...

000000cc <__divsi3>:
      cc:	02054e63          	bltz	a0,108 <__umodsi3+0x8>
      d0:	0405c363          	bltz	a1,116 <__umodsi3+0x16>

000000d4 <__udivsi3>:
      d4:	862e                	mv	a2,a1
      d6:	85aa                	mv	a1,a0
      d8:	557d                	li	a0,-1
      da:	c215                	beqz	a2,fe <__udivsi3+0x2a>
      dc:	4685                	li	a3,1
      de:	00b67863          	bgeu	a2,a1,ee <__udivsi3+0x1a>
      e2:	00c05663          	blez	a2,ee <__udivsi3+0x1a>
      e6:	0606                	slli	a2,a2,0x1
      e8:	0686                	slli	a3,a3,0x1
      ea:	feb66ce3          	bltu	a2,a1,e2 <__udivsi3+0xe>
      ee:	4501                	li	a0,0
      f0:	00c5e463          	bltu	a1,a2,f8 <__udivsi3+0x24>
      f4:	8d91                	sub	a1,a1,a2
      f6:	8d55                	or	a0,a0,a3
      f8:	8285                	srli	a3,a3,0x1
      fa:	8205                	srli	a2,a2,0x1
      fc:	faf5                	bnez	a3,f0 <__udivsi3+0x1c>
      fe:	8082                	ret

00000100 <__umodsi3>:
     100:	8286                	mv	t0,ra
     102:	3fc9                	jal	d4 <__udivsi3>
     104:	852e                	mv	a0,a1
     106:	8282                	jr	t0
     108:	40a00533          	neg	a0,a0
     10c:	0005d763          	bgez	a1,11a <__umodsi3+0x1a>
     110:	40b005b3          	neg	a1,a1
     114:	b7c1                	j	d4 <__udivsi3>
     116:	40b005b3          	neg	a1,a1
     11a:	8286                	mv	t0,ra
     11c:	3f65                	jal	d4 <__udivsi3>
     11e:	40a00533          	neg	a0,a0
     122:	8282                	jr	t0

00000124 <__modsi3>:
     124:	8286                	mv	t0,ra
     126:	0005c763          	bltz	a1,134 <__modsi3+0x10>
     12a:	00054963          	bltz	a0,13c <__modsi3+0x18>
     12e:	375d                	jal	d4 <__udivsi3>
     130:	852e                	mv	a0,a1
     132:	8282                	jr	t0
     134:	40b005b3          	neg	a1,a1
     138:	fe055be3          	bgez	a0,12e <__modsi3+0xa>
     13c:	40a00533          	neg	a0,a0
     140:	3f51                	jal	d4 <__udivsi3>
     142:	40b00533          	neg	a0,a1
     146:	8282                	jr	t0
	...

0000014a <memset>:
     14a:	433d                	li	t1,15
     14c:	872a                	mv	a4,a0
     14e:	02c37363          	bgeu	t1,a2,174 <memset+0x2a>
     152:	00f77793          	andi	a5,a4,15
     156:	efbd                	bnez	a5,1d4 <memset+0x8a>
     158:	e5ad                	bnez	a1,1c2 <memset+0x78>
     15a:	ff067693          	andi	a3,a2,-16
     15e:	8a3d                	andi	a2,a2,15
     160:	96ba                	add	a3,a3,a4
     162:	c30c                	sw	a1,0(a4)
     164:	c34c                	sw	a1,4(a4)
     166:	c70c                	sw	a1,8(a4)
     168:	c74c                	sw	a1,12(a4)
     16a:	0741                	addi	a4,a4,16
     16c:	fed76be3          	bltu	a4,a3,162 <memset+0x18>
     170:	e211                	bnez	a2,174 <memset+0x2a>
     172:	8082                	ret
     174:	40c306b3          	sub	a3,t1,a2
     178:	068a                	slli	a3,a3,0x2
     17a:	00000297          	auipc	t0,0x0
     17e:	9696                	add	a3,a3,t0
     180:	00a68067          	jr	10(a3)
     184:	00b70723          	sb	a1,14(a4)
     188:	00b706a3          	sb	a1,13(a4)
     18c:	00b70623          	sb	a1,12(a4)
     190:	00b705a3          	sb	a1,11(a4)
     194:	00b70523          	sb	a1,10(a4)
     198:	00b704a3          	sb	a1,9(a4)
     19c:	00b70423          	sb	a1,8(a4)
     1a0:	00b703a3          	sb	a1,7(a4)
     1a4:	00b70323          	sb	a1,6(a4)
     1a8:	00b702a3          	sb	a1,5(a4)
     1ac:	00b70223          	sb	a1,4(a4)
     1b0:	00b701a3          	sb	a1,3(a4)
     1b4:	00b70123          	sb	a1,2(a4)
     1b8:	00b700a3          	sb	a1,1(a4)
     1bc:	00b70023          	sb	a1,0(a4)
     1c0:	8082                	ret
     1c2:	0ff5f593          	andi	a1,a1,255
     1c6:	00859693          	slli	a3,a1,0x8
     1ca:	8dd5                	or	a1,a1,a3
     1cc:	01059693          	slli	a3,a1,0x10
     1d0:	8dd5                	or	a1,a1,a3
     1d2:	b761                	j	15a <memset+0x10>
     1d4:	00279693          	slli	a3,a5,0x2
     1d8:	00000297          	auipc	t0,0x0
     1dc:	9696                	add	a3,a3,t0
     1de:	8286                	mv	t0,ra
     1e0:	fa8680e7          	jalr	-88(a3)
     1e4:	8096                	mv	ra,t0
     1e6:	17c1                	addi	a5,a5,-16
     1e8:	8f1d                	sub	a4,a4,a5
     1ea:	963e                	add	a2,a2,a5
     1ec:	f8c374e3          	bgeu	t1,a2,174 <memset+0x2a>
     1f0:	b7a5                	j	158 <memset+0xe>

000001f2 <NMI_Handler>:
     1f2:	a001                	j	1f2 <NMI_Handler>

000001f4 <HardFault_Handler>:
     1f4:	a001                	j	1f4 <HardFault_Handler>

000001f6 <kbd_init>:
     1f6:	eabff2ef          	jal	t0,a0 <__riscv_save_0>
     1fa:	fdc10113          	addi	sp,sp,-36
     1fe:	4789                	li	a5,2
     200:	847c                	sh	a5,8(sp)
     202:	40011537          	lui	a0,0x40011
     206:	4791                	li	a5,4
     208:	c83e                	sw	a5,16(sp)
     20a:	002c                	addi	a1,sp,8
     20c:	478d                	li	a5,3
     20e:	40050513          	addi	a0,a0,1024 # 40011400 <__global_pointer$+0x20010bc8>
     212:	c63e                	sw	a5,12(sp)
     214:	00011523          	sh	zero,10(sp)
     218:	6e0020ef          	jal	ra,28f8 <GPIO_Init>
     21c:	08000793          	li	a5,128
     220:	002c                	addi	a1,sp,8
     222:	40011537          	lui	a0,0x40011
     226:	847c                	sh	a5,8(sp)
     228:	6d0020ef          	jal	ra,28f8 <GPIO_Init>
     22c:	4585                	li	a1,1
     22e:	4505                	li	a0,1
     230:	ca02                	sw	zero,20(sp)
     232:	cc02                	sw	zero,24(sp)
     234:	ce02                	sw	zero,28(sp)
     236:	d002                	sw	zero,32(sp)
     238:	245020ef          	jal	ra,2c7c <RCC_APB2PeriphClockCmd>
     23c:	4585                	li	a1,1
     23e:	450d                	li	a0,3
     240:	746020ef          	jal	ra,2986 <GPIO_EXTILineConfig>
     244:	4789                	li	a5,2
     246:	4405                	li	s0,1
     248:	ca3e                	sw	a5,20(sp)
     24a:	0848                	addi	a0,sp,20
     24c:	47b1                	li	a5,12
     24e:	ce3e                	sw	a5,28(sp)
     250:	d022                	sw	s0,32(sp)
     252:	cc02                	sw	zero,24(sp)
     254:	63a020ef          	jal	ra,288e <EXTI_Init>
     258:	47d1                	li	a5,20
     25a:	c002                	sw	zero,0(sp)
     25c:	850a                	mv	a0,sp
     25e:	805c                	sb	a5,0(sp)
     260:	8140                	sb	s0,2(sp)
     262:	c222                	sw	s0,4(sp)
     264:	0f3020ef          	jal	ra,2b56 <NVIC_Init>
     268:	02410113          	addi	sp,sp,36
     26c:	bd3d                	j	aa <__riscv_restore_0>

0000026e <kbdRead>:
     26e:	83218713          	addi	a4,gp,-1998 # 2000006a <KbdData>
     272:	2308                	lbu	a0,0(a4)
     274:	83418793          	addi	a5,gp,-1996 # 2000006c <KbdStatus>
     278:	0ff57513          	andi	a0,a0,255
     27c:	18050c63          	beqz	a0,414 <kbdRead+0x1a6>
     280:	00070023          	sb	zero,0(a4)
     284:	fde50713          	addi	a4,a0,-34 # 40010fde <__global_pointer$+0x200107a6>
     288:	0ff77693          	andi	a3,a4,255
     28c:	0ba00613          	li	a2,186
     290:	4701                	li	a4,0
     292:	00d66763          	bltu	a2,a3,2a0 <kbdRead+0x32>
     296:	670d                	lui	a4,0x3
     298:	04c70713          	addi	a4,a4,76 # 304c <CSWTCH.344>
     29c:	9736                	add	a4,a4,a3
     29e:	2318                	lbu	a4,0(a4)
     2a0:	2394                	lbu	a3,0(a5)
     2a2:	8a99                	andi	a3,a3,6
     2a4:	c299                	beqz	a3,2aa <kbdRead+0x3c>
     2a6:	0df77713          	andi	a4,a4,223
     2aa:	07800693          	li	a3,120
     2ae:	14d50e63          	beq	a0,a3,40a <kbdRead+0x19c>
     2b2:	0ca6e063          	bltu	a3,a0,372 <kbdRead+0x104>
     2b6:	05200693          	li	a3,82
     2ba:	1ed50263          	beq	a0,a3,49e <kbdRead+0x230>
     2be:	06a6e063          	bltu	a3,a0,31e <kbdRead+0xb0>
     2c2:	03600693          	li	a3,54
     2c6:	12d50063          	beq	a0,a3,3e6 <kbdRead+0x178>
     2ca:	02a6ef63          	bltu	a3,a0,308 <kbdRead+0x9a>
     2ce:	46b9                	li	a3,14
     2d0:	0ed50563          	beq	a0,a3,3ba <kbdRead+0x14c>
     2d4:	02e00693          	li	a3,46
     2d8:	18d50c63          	beq	a0,a3,470 <kbdRead+0x202>
     2dc:	07200693          	li	a3,114
     2e0:	20d50f63          	beq	a0,a3,4fe <kbdRead+0x290>
     2e4:	1ca6e563          	bltu	a3,a0,4ae <kbdRead+0x240>
     2e8:	04a00693          	li	a3,74
     2ec:	26d50363          	beq	a0,a3,552 <kbdRead+0x2e4>
     2f0:	18a6eb63          	bltu	a3,a0,486 <kbdRead+0x218>
     2f4:	02a00693          	li	a3,42
     2f8:	22d50463          	beq	a0,a3,520 <kbdRead+0x2b2>
     2fc:	03200693          	li	a3,50
     300:	24d50263          	beq	a0,a3,544 <kbdRead+0x2d6>
     304:	853a                	mv	a0,a4
     306:	a239                	j	414 <kbdRead+0x1a6>
     308:	03e00693          	li	a3,62
     30c:	32d50963          	beq	a0,a3,63e <kbdRead+0x3d0>
     310:	04e00693          	li	a3,78
     314:	fcd514e3          	bne	a0,a3,2dc <kbdRead+0x6e>
     318:	03200513          	li	a0,50
     31c:	a8e5                	j	414 <kbdRead+0x1a6>
     31e:	06400693          	li	a3,100
     322:	10d50c63          	beq	a0,a3,43a <kbdRead+0x1cc>
     326:	02a6e263          	bltu	a3,a0,34a <kbdRead+0xdc>
     32a:	05e00693          	li	a3,94
     32e:	10d50b63          	beq	a0,a3,444 <kbdRead+0x1d6>
     332:	06200693          	li	a3,98
     336:	fad513e3          	bne	a0,a3,2dc <kbdRead+0x6e>
     33a:	2398                	lbu	a4,0(a5)
     33c:	02800513          	li	a0,40
     340:	8b19                	andi	a4,a4,6
     342:	eb69                	bnez	a4,414 <kbdRead+0x1a6>
     344:	03900513          	li	a0,57
     348:	a0f1                	j	414 <kbdRead+0x1a6>
     34a:	06c00693          	li	a3,108
     34e:	10d50c63          	beq	a0,a3,466 <kbdRead+0x1f8>
     352:	07400693          	li	a3,116
     356:	10d50263          	beq	a0,a3,45a <kbdRead+0x1ec>
     35a:	06800693          	li	a3,104
     35e:	f6d51fe3          	bne	a0,a3,2dc <kbdRead+0x6e>
     362:	2398                	lbu	a4,0(a5)
     364:	02100513          	li	a0,33
     368:	8b19                	andi	a4,a4,6
     36a:	e74d                	bnez	a4,414 <kbdRead+0x1a6>
     36c:	03100513          	li	a0,49
     370:	a055                	j	414 <kbdRead+0x1a6>
     372:	0a400693          	li	a3,164
     376:	0cd50a63          	beq	a0,a3,44a <kbdRead+0x1dc>
     37a:	04a6e363          	bltu	a3,a0,3c0 <kbdRead+0x152>
     37e:	09600693          	li	a3,150
     382:	fed505e3          	beq	a0,a3,36c <kbdRead+0xfe>
     386:	00a6ed63          	bltu	a3,a0,3a0 <kbdRead+0x132>
     38a:	07c00693          	li	a3,124
     38e:	0ed50463          	beq	a0,a3,476 <kbdRead+0x208>
     392:	08e00693          	li	a3,142
     396:	f4d513e3          	bne	a0,a3,2dc <kbdRead+0x6e>
     39a:	02e00713          	li	a4,46
     39e:	b79d                	j	304 <kbdRead+0x96>
     3a0:	09e00693          	li	a3,158
     3a4:	2ad50063          	beq	a0,a3,644 <kbdRead+0x3d6>
     3a8:	0a200693          	li	a3,162
     3ac:	f2d518e3          	bne	a0,a3,2dc <kbdRead+0x6e>
     3b0:	2398                	lbu	a4,0(a5)
     3b2:	02900513          	li	a0,41
     3b6:	8b19                	andi	a4,a4,6
     3b8:	ef31                	bnez	a4,414 <kbdRead+0x1a6>
     3ba:	03000513          	li	a0,48
     3be:	a899                	j	414 <kbdRead+0x1a6>
     3c0:	0be00693          	li	a3,190
     3c4:	f8d500e3          	beq	a0,a3,344 <kbdRead+0xd6>
     3c8:	02a6e263          	bltu	a3,a0,3ec <kbdRead+0x17e>
     3cc:	0ae00693          	li	a3,174
     3d0:	0ad50863          	beq	a0,a3,480 <kbdRead+0x212>
     3d4:	0bc00693          	li	a3,188
     3d8:	f0d512e3          	bne	a0,a3,2dc <kbdRead+0x6e>
     3dc:	2398                	lbu	a4,0(a5)
     3de:	02600513          	li	a0,38
     3e2:	8b19                	andi	a4,a4,6
     3e4:	eb05                	bnez	a4,414 <kbdRead+0x1a6>
     3e6:	03700513          	li	a0,55
     3ea:	a02d                	j	414 <kbdRead+0x1a6>
     3ec:	0d600693          	li	a3,214
     3f0:	06d50263          	beq	a0,a3,454 <kbdRead+0x1e6>
     3f4:	0de00693          	li	a3,222
     3f8:	10d50863          	beq	a0,a3,508 <kbdRead+0x29a>
     3fc:	0ce00693          	li	a3,206
     400:	ecd51ee3          	bne	a0,a3,2dc <kbdRead+0x6e>
     404:	03500513          	li	a0,53
     408:	a031                	j	414 <kbdRead+0x1a6>
     40a:	2398                	lbu	a4,0(a5)
     40c:	04000513          	li	a0,64
     410:	8b19                	andi	a4,a4,6
     412:	d319                	beqz	a4,318 <kbdRead+0xaa>
     414:	239c                	lbu	a5,0(a5)
     416:	8b85                	andi	a5,a5,1
     418:	22078963          	beqz	a5,64a <kbdRead+0x3dc>
     41c:	fd450793          	addi	a5,a0,-44
     420:	0ff7f793          	andi	a5,a5,255
     424:	04e00713          	li	a4,78
     428:	22f76163          	bltu	a4,a5,64a <kbdRead+0x3dc>
     42c:	670d                	lui	a4,0x3
     42e:	078a                	slli	a5,a5,0x2
     430:	ef870713          	addi	a4,a4,-264 # 2ef8 <Delay_Ms+0x3c>
     434:	97ba                	add	a5,a5,a4
     436:	439c                	lw	a5,0(a5)
     438:	8782                	jr	a5
     43a:	2398                	lbu	a4,0(a5)
     43c:	02300513          	li	a0,35
     440:	8b19                	andi	a4,a4,6
     442:	fb69                	bnez	a4,414 <kbdRead+0x1a6>
     444:	03300513          	li	a0,51
     448:	b7f1                	j	414 <kbdRead+0x1a6>
     44a:	2398                	lbu	a4,0(a5)
     44c:	02400513          	li	a0,36
     450:	8b19                	andi	a4,a4,6
     452:	f369                	bnez	a4,414 <kbdRead+0x1a6>
     454:	03400513          	li	a0,52
     458:	bf75                	j	414 <kbdRead+0x1a6>
     45a:	2398                	lbu	a4,0(a5)
     45c:	02500513          	li	a0,37
     460:	8b19                	andi	a4,a4,6
     462:	fb4d                	bnez	a4,414 <kbdRead+0x1a6>
     464:	b745                	j	404 <kbdRead+0x196>
     466:	2398                	lbu	a4,0(a5)
     468:	05e00513          	li	a0,94
     46c:	8b19                	andi	a4,a4,6
     46e:	f35d                	bnez	a4,414 <kbdRead+0x1a6>
     470:	03600513          	li	a0,54
     474:	b745                	j	414 <kbdRead+0x1a6>
     476:	2398                	lbu	a4,0(a5)
     478:	02a00513          	li	a0,42
     47c:	8b19                	andi	a4,a4,6
     47e:	fb59                	bnez	a4,414 <kbdRead+0x1a6>
     480:	03800513          	li	a0,56
     484:	bf41                	j	414 <kbdRead+0x1a6>
     486:	05a00693          	li	a3,90
     48a:	0ed50f63          	beq	a0,a3,588 <kbdRead+0x31a>
     48e:	06600693          	li	a3,102
     492:	0ed50d63          	beq	a0,a3,58c <kbdRead+0x31e>
     496:	05200693          	li	a3,82
     49a:	e6d515e3          	bne	a0,a3,304 <kbdRead+0x96>
     49e:	2398                	lbu	a4,0(a5)
     4a0:	03f00513          	li	a0,63
     4a4:	8b19                	andi	a4,a4,6
     4a6:	f73d                	bnez	a4,414 <kbdRead+0x1a6>
     4a8:	02f00513          	li	a0,47
     4ac:	b7a5                	j	414 <kbdRead+0x1a6>
     4ae:	0aa00693          	li	a3,170
     4b2:	04d50e63          	beq	a0,a3,50e <kbdRead+0x2a0>
     4b6:	02a6e663          	bltu	a3,a0,4e2 <kbdRead+0x274>
     4ba:	09200693          	li	a3,146
     4be:	0ad50c63          	beq	a0,a3,576 <kbdRead+0x308>
     4c2:	09400693          	li	a3,148
     4c6:	0cd50563          	beq	a0,a3,590 <kbdRead+0x322>
     4ca:	08200693          	li	a3,130
     4ce:	e2d51be3          	bne	a0,a3,304 <kbdRead+0x96>
     4d2:	2398                	lbu	a4,0(a5)
     4d4:	03c00513          	li	a0,60
     4d8:	8b19                	andi	a4,a4,6
     4da:	ff0d                	bnez	a4,414 <kbdRead+0x1a6>
     4dc:	02c00513          	li	a0,44
     4e0:	bf15                	j	414 <kbdRead+0x1a6>
     4e2:	0ba00693          	li	a3,186
     4e6:	06d50f63          	beq	a0,a3,564 <kbdRead+0x2f6>
     4ea:	0da00693          	li	a3,218
     4ee:	04d50263          	beq	a0,a3,532 <kbdRead+0x2c4>
     4f2:	0b000693          	li	a3,176
     4f6:	e0d517e3          	bne	a0,a3,304 <kbdRead+0x96>
     4fa:	4525                	li	a0,9
     4fc:	bf21                	j	414 <kbdRead+0x1a6>
     4fe:	2398                	lbu	a4,0(a5)
     500:	05f00513          	li	a0,95
     504:	8b19                	andi	a4,a4,6
     506:	f719                	bnez	a4,414 <kbdRead+0x1a6>
     508:	02d00513          	li	a0,45
     50c:	b721                	j	414 <kbdRead+0x1a6>
     50e:	2398                	lbu	a4,0(a5)
     510:	02b00513          	li	a0,43
     514:	8b19                	andi	a4,a4,6
     516:	ee071fe3          	bnez	a4,414 <kbdRead+0x1a6>
     51a:	03d00513          	li	a0,61
     51e:	bddd                	j	414 <kbdRead+0x1a6>
     520:	2398                	lbu	a4,0(a5)
     522:	07b00513          	li	a0,123
     526:	8b19                	andi	a4,a4,6
     528:	ee0716e3          	bnez	a4,414 <kbdRead+0x1a6>
     52c:	05b00513          	li	a0,91
     530:	b5d5                	j	414 <kbdRead+0x1a6>
     532:	2398                	lbu	a4,0(a5)
     534:	07d00513          	li	a0,125
     538:	8b19                	andi	a4,a4,6
     53a:	ec071de3          	bnez	a4,414 <kbdRead+0x1a6>
     53e:	05d00513          	li	a0,93
     542:	bdc9                	j	414 <kbdRead+0x1a6>
     544:	2388                	lbu	a0,0(a5)
     546:	8919                	andi	a0,a0,6
     548:	00153513          	seqz	a0,a0
     54c:	03a50513          	addi	a0,a0,58
     550:	b5d1                	j	414 <kbdRead+0x1a6>
     552:	2398                	lbu	a4,0(a5)
     554:	02200513          	li	a0,34
     558:	8b19                	andi	a4,a4,6
     55a:	ea071de3          	bnez	a4,414 <kbdRead+0x1a6>
     55e:	02700513          	li	a0,39
     562:	bd4d                	j	414 <kbdRead+0x1a6>
     564:	2398                	lbu	a4,0(a5)
     566:	07c00513          	li	a0,124
     56a:	8b19                	andi	a4,a4,6
     56c:	ea0714e3          	bnez	a4,414 <kbdRead+0x1a6>
     570:	05c00513          	li	a0,92
     574:	b545                	j	414 <kbdRead+0x1a6>
     576:	2398                	lbu	a4,0(a5)
     578:	03e00513          	li	a0,62
     57c:	8b19                	andi	a4,a4,6
     57e:	e8071be3          	bnez	a4,414 <kbdRead+0x1a6>
     582:	02e00513          	li	a0,46
     586:	b579                	j	414 <kbdRead+0x1a6>
     588:	4529                	li	a0,10
     58a:	b569                	j	414 <kbdRead+0x1a6>
     58c:	4521                	li	a0,8
     58e:	b559                	j	414 <kbdRead+0x1a6>
     590:	02000513          	li	a0,32
     594:	b541                	j	414 <kbdRead+0x1a6>
     596:	0a000513          	li	a0,160
     59a:	8082                	ret
     59c:	0a100513          	li	a0,161
     5a0:	8082                	ret
     5a2:	0a200513          	li	a0,162
     5a6:	8082                	ret
     5a8:	0a300513          	li	a0,163
     5ac:	8082                	ret
     5ae:	0a400513          	li	a0,164
     5b2:	8082                	ret
     5b4:	0a500513          	li	a0,165
     5b8:	8082                	ret
     5ba:	0a600513          	li	a0,166
     5be:	8082                	ret
     5c0:	0a700513          	li	a0,167
     5c4:	8082                	ret
     5c6:	0a800513          	li	a0,168
     5ca:	8082                	ret
     5cc:	0a900513          	li	a0,169
     5d0:	8082                	ret
     5d2:	0aa00513          	li	a0,170
     5d6:	8082                	ret
     5d8:	0ab00513          	li	a0,171
     5dc:	8082                	ret
     5de:	0ac00513          	li	a0,172
     5e2:	8082                	ret
     5e4:	0ad00513          	li	a0,173
     5e8:	8082                	ret
     5ea:	0ae00513          	li	a0,174
     5ee:	8082                	ret
     5f0:	0af00513          	li	a0,175
     5f4:	8082                	ret
     5f6:	0b000513          	li	a0,176
     5fa:	8082                	ret
     5fc:	0b100513          	li	a0,177
     600:	8082                	ret
     602:	0b200513          	li	a0,178
     606:	8082                	ret
     608:	0b300513          	li	a0,179
     60c:	8082                	ret
     60e:	0b400513          	li	a0,180
     612:	8082                	ret
     614:	0b500513          	li	a0,181
     618:	8082                	ret
     61a:	0b600513          	li	a0,182
     61e:	8082                	ret
     620:	0b700513          	li	a0,183
     624:	8082                	ret
     626:	0b800513          	li	a0,184
     62a:	8082                	ret
     62c:	0b900513          	li	a0,185
     630:	8082                	ret
     632:	0ba00513          	li	a0,186
     636:	8082                	ret
     638:	0bb00513          	li	a0,187
     63c:	8082                	ret
     63e:	02a00513          	li	a0,42
     642:	bbc9                	j	414 <kbdRead+0x1a6>
     644:	02b00513          	li	a0,43
     648:	b3f1                	j	414 <kbdRead+0x1a6>
     64a:	8082                	ret

0000064c <GetKeyChar>:
     64c:	a55ff2ef          	jal	t0,a0 <__riscv_save_0>
     650:	d561d683          	lhu	a3,-682(gp) # 2000058e <dispPointer>
     654:	83818793          	addi	a5,gp,-1992 # 20000070 <VideoRAM>
     658:	97b6                	add	a5,a5,a3
     65a:	2394                	lbu	a3,0(a5)
     65c:	1171                	addi	sp,sp,-4
     65e:	d5618713          	addi	a4,gp,-682 # 2000058e <dispPointer>
     662:	0ff6f693          	andi	a3,a3,255
     666:	83818413          	addi	s0,gp,-1992 # 20000070 <VideoRAM>
     66a:	ce818793          	addi	a5,gp,-792 # 20000520 <basTimer>
     66e:	438c                	lw	a1,0(a5)
     670:	231e                	lhu	a5,0(a4)
     672:	01259513          	slli	a0,a1,0x12
     676:	97a2                	add	a5,a5,s0
     678:	02055363          	bgez	a0,69e <GetKeyChar+0x52>
     67c:	a394                	sb	a3,0(a5)
     67e:	c036                	sw	a3,0(sp)
     680:	36fd                	jal	26e <kbdRead>
     682:	84aa                	mv	s1,a0
     684:	4505                	li	a0,1
     686:	037020ef          	jal	ra,2ebc <Delay_Ms>
     68a:	4682                	lw	a3,0(sp)
     68c:	d5618713          	addi	a4,gp,-682 # 2000058e <dispPointer>
     690:	dce9                	beqz	s1,66a <GetKeyChar+0x1e>
     692:	231e                	lhu	a5,0(a4)
     694:	8526                	mv	a0,s1
     696:	943e                	add	s0,s0,a5
     698:	a014                	sb	a3,0(s0)
     69a:	0111                	addi	sp,sp,4
     69c:	b439                	j	aa <__riscv_restore_0>
     69e:	06000593          	li	a1,96
     6a2:	a38c                	sb	a1,0(a5)
     6a4:	bfe9                	j	67e <GetKeyChar+0x32>

000006a6 <WriteChar>:
     6a6:	47a9                	li	a5,10
     6a8:	02f50f63          	beq	a0,a5,6e6 <WriteChar+0x40>
     6ac:	47b1                	li	a5,12
     6ae:	00f50d63          	beq	a0,a5,6c8 <WriteChar+0x22>
     6b2:	47a5                	li	a5,9
     6b4:	d5618693          	addi	a3,gp,-682 # 2000058e <dispPointer>
     6b8:	08f51463          	bne	a0,a5,740 <WriteChar+0x9a>
     6bc:	229e                	lhu	a5,0(a3)
     6be:	838d                	srli	a5,a5,0x3
     6c0:	0785                	addi	a5,a5,1
     6c2:	078e                	slli	a5,a5,0x3
     6c4:	a29e                	sh	a5,0(a3)
     6c6:	a03d                	j	6f4 <WriteChar+0x4e>
     6c8:	4781                	li	a5,0
     6ca:	83818713          	addi	a4,gp,-1992 # 20000070 <VideoRAM>
     6ce:	32000693          	li	a3,800
     6d2:	00f70633          	add	a2,a4,a5
     6d6:	00060023          	sb	zero,0(a2)
     6da:	0785                	addi	a5,a5,1
     6dc:	fed79be3          	bne	a5,a3,6d2 <WriteChar+0x2c>
     6e0:	d4019b23          	sh	zero,-682(gp) # 2000058e <dispPointer>
     6e4:	8082                	ret
     6e6:	d5618713          	addi	a4,gp,-682 # 2000058e <dispPointer>
     6ea:	231e                	lhu	a5,0(a4)
     6ec:	8395                	srli	a5,a5,0x5
     6ee:	0785                	addi	a5,a5,1
     6f0:	0796                	slli	a5,a5,0x5
     6f2:	a31e                	sh	a5,0(a4)
     6f4:	d561d683          	lhu	a3,-682(gp) # 2000058e <dispPointer>
     6f8:	31f00713          	li	a4,799
     6fc:	d5618613          	addi	a2,gp,-682 # 2000058e <dispPointer>
     700:	16d77063          	bgeu	a4,a3,860 <WriteChar+0x1ba>
     704:	4681                	li	a3,0
     706:	83818793          	addi	a5,gp,-1992 # 20000070 <VideoRAM>
     70a:	30000593          	li	a1,768
     70e:	02068713          	addi	a4,a3,32
     712:	973e                	add	a4,a4,a5
     714:	2318                	lbu	a4,0(a4)
     716:	00d78533          	add	a0,a5,a3
     71a:	0685                	addi	a3,a3,1
     71c:	0ff77713          	andi	a4,a4,255
     720:	a118                	sb	a4,0(a0)
     722:	feb696e3          	bne	a3,a1,70e <WriteChar+0x68>
     726:	32000713          	li	a4,800
     72a:	00d785b3          	add	a1,a5,a3
     72e:	00058023          	sb	zero,0(a1)
     732:	0685                	addi	a3,a3,1
     734:	fee69be3          	bne	a3,a4,72a <WriteChar+0x84>
     738:	30000793          	li	a5,768
     73c:	a21e                	sh	a5,0(a2)
     73e:	8082                	ret
     740:	fe050613          	addi	a2,a0,-32
     744:	0ff67613          	andi	a2,a2,255
     748:	01861713          	slli	a4,a2,0x18
     74c:	8761                	srai	a4,a4,0x18
     74e:	229e                	lhu	a5,0(a3)
     750:	00074a63          	bltz	a4,764 <WriteChar+0xbe>
     754:	00178713          	addi	a4,a5,1
     758:	a29a                	sh	a4,0(a3)
     75a:	83818713          	addi	a4,gp,-1992 # 20000070 <VideoRAM>
     75e:	97ba                	add	a5,a5,a4
     760:	a390                	sb	a2,0(a5)
     762:	bf49                	j	6f4 <WriteChar+0x4e>
     764:	06050713          	addi	a4,a0,96
     768:	0ff77713          	andi	a4,a4,255
     76c:	466d                	li	a2,27
     76e:	0ce66d63          	bltu	a2,a4,848 <WriteChar+0x1a2>
     772:	f6050513          	addi	a0,a0,-160
     776:	00351713          	slli	a4,a0,0x3
     77a:	650d                	lui	a0,0x3
     77c:	50850513          	addi	a0,a0,1288 # 3508 <KeyWordTab>
     780:	953a                	add	a0,a0,a4
     782:	00054303          	lbu	t1,0(a0)
     786:	1161                	addi	sp,sp,-8
     788:	c222                	sw	s0,4(sp)
     78a:	c026                	sw	s1,0(sp)
     78c:	4581                	li	a1,0
     78e:	4481                	li	s1,0
     790:	83818713          	addi	a4,gp,-1992 # 20000070 <VideoRAM>
     794:	31f00293          	li	t0,799
     798:	30000393          	li	t2,768
     79c:	32000413          	li	s0,800
     7a0:	0465cd63          	blt	a1,t1,7fa <WriteChar+0x154>
     7a4:	c091                	beqz	s1,7a8 <WriteChar+0x102>
     7a6:	a29e                	sh	a5,0(a3)
     7a8:	d561d683          	lhu	a3,-682(gp) # 2000058e <dispPointer>
     7ac:	31f00713          	li	a4,799
     7b0:	d5618613          	addi	a2,gp,-682 # 2000058e <dispPointer>
     7b4:	02d77f63          	bgeu	a4,a3,7f2 <WriteChar+0x14c>
     7b8:	4681                	li	a3,0
     7ba:	83818793          	addi	a5,gp,-1992 # 20000070 <VideoRAM>
     7be:	30000593          	li	a1,768
     7c2:	02068713          	addi	a4,a3,32
     7c6:	973e                	add	a4,a4,a5
     7c8:	2318                	lbu	a4,0(a4)
     7ca:	00d78533          	add	a0,a5,a3
     7ce:	0685                	addi	a3,a3,1
     7d0:	0ff77713          	andi	a4,a4,255
     7d4:	a118                	sb	a4,0(a0)
     7d6:	feb696e3          	bne	a3,a1,7c2 <WriteChar+0x11c>
     7da:	32000713          	li	a4,800
     7de:	00d785b3          	add	a1,a5,a3
     7e2:	00058023          	sb	zero,0(a1)
     7e6:	0685                	addi	a3,a3,1
     7e8:	fee69be3          	bne	a3,a4,7de <WriteChar+0x138>
     7ec:	30000793          	li	a5,768
     7f0:	a21e                	sh	a5,0(a2)
     7f2:	4412                	lw	s0,4(sp)
     7f4:	4482                	lw	s1,0(sp)
     7f6:	0121                	addi	sp,sp,8
     7f8:	8082                	ret
     7fa:	3104                	lbu	s1,1(a0)
     7fc:	00178613          	addi	a2,a5,1
     800:	0642                	slli	a2,a2,0x10
     802:	1481                	addi	s1,s1,-32
     804:	0ff4f493          	andi	s1,s1,255
     808:	97ba                	add	a5,a5,a4
     80a:	8241                	srli	a2,a2,0x10
     80c:	a384                	sb	s1,0(a5)
     80e:	02c2f863          	bgeu	t0,a2,83e <WriteChar+0x198>
     812:	4781                	li	a5,0
     814:	02078613          	addi	a2,a5,32
     818:	963a                	add	a2,a2,a4
     81a:	2210                	lbu	a2,0(a2)
     81c:	00f704b3          	add	s1,a4,a5
     820:	0785                	addi	a5,a5,1
     822:	0ff67613          	andi	a2,a2,255
     826:	a090                	sb	a2,0(s1)
     828:	fe7796e3          	bne	a5,t2,814 <WriteChar+0x16e>
     82c:	00f70633          	add	a2,a4,a5
     830:	00060023          	sb	zero,0(a2)
     834:	0785                	addi	a5,a5,1
     836:	fe879be3          	bne	a5,s0,82c <WriteChar+0x186>
     83a:	30000613          	li	a2,768
     83e:	0585                	addi	a1,a1,1
     840:	0505                	addi	a0,a0,1
     842:	4485                	li	s1,1
     844:	87b2                	mv	a5,a2
     846:	bfa9                	j	7a0 <WriteChar+0xfa>
     848:	4721                	li	a4,8
     84a:	eae505e3          	beq	a0,a4,6f4 <WriteChar+0x4e>
     84e:	00178713          	addi	a4,a5,1
     852:	a29a                	sh	a4,0(a3)
     854:	83818713          	addi	a4,gp,-1992 # 20000070 <VideoRAM>
     858:	97ba                	add	a5,a5,a4
     85a:	4739                	li	a4,14
     85c:	a398                	sb	a4,0(a5)
     85e:	bd59                	j	6f4 <WriteChar+0x4e>
     860:	8082                	ret

00000862 <WriteText>:
     862:	83fff2ef          	jal	t0,a0 <__riscv_save_0>
     866:	842a                	mv	s0,a0
     868:	00040503          	lb	a0,0(s0)
     86c:	e119                	bnez	a0,872 <WriteText+0x10>
     86e:	83dff06f          	j	aa <__riscv_restore_0>
     872:	0ff57513          	andi	a0,a0,255
     876:	0405                	addi	s0,s0,1
     878:	353d                	jal	6a6 <WriteChar>
     87a:	b7fd                	j	868 <WriteText+0x6>

0000087c <WriteTextln>:
     87c:	825ff2ef          	jal	t0,a0 <__riscv_save_0>
     880:	842a                	mv	s0,a0
     882:	00040503          	lb	a0,0(s0)
     886:	e509                	bnez	a0,890 <WriteTextln+0x14>
     888:	4529                	li	a0,10
     88a:	3d31                	jal	6a6 <WriteChar>
     88c:	81fff06f          	j	aa <__riscv_restore_0>
     890:	0ff57513          	andi	a0,a0,255
     894:	0405                	addi	s0,s0,1
     896:	3d01                	jal	6a6 <WriteChar>
     898:	b7ed                	j	882 <WriteTextln+0x6>

0000089a <WriteNum>:
     89a:	807ff2ef          	jal	t0,a0 <__riscv_save_0>
     89e:	1131                	addi	sp,sp,-20
     8a0:	c12d                	beqz	a0,902 <WriteNum+0x68>
     8a2:	84aa                	mv	s1,a0
     8a4:	4781                	li	a5,0
     8a6:	00055563          	bgez	a0,8b0 <WriteNum+0x16>
     8aa:	40a004b3          	neg	s1,a0
     8ae:	4785                	li	a5,1
     8b0:	4401                	li	s0,0
     8b2:	c23e                	sw	a5,4(sp)
     8b4:	085c                	addi	a5,sp,20
     8b6:	00878733          	add	a4,a5,s0
     8ba:	45a9                	li	a1,10
     8bc:	8526                	mv	a0,s1
     8be:	c03a                	sw	a4,0(sp)
     8c0:	865ff0ef          	jal	ra,124 <__modsi3>
     8c4:	4702                	lw	a4,0(sp)
     8c6:	03056513          	ori	a0,a0,48
     8ca:	45a9                	li	a1,10
     8cc:	fea70a23          	sb	a0,-12(a4)
     8d0:	8526                	mv	a0,s1
     8d2:	ffaff0ef          	jal	ra,cc <__divsi3>
     8d6:	0405                	addi	s0,s0,1
     8d8:	84aa                	mv	s1,a0
     8da:	0ff47413          	andi	s0,s0,255
     8de:	4792                	lw	a5,4(sp)
     8e0:	f969                	bnez	a0,8b2 <WriteNum+0x18>
     8e2:	02d00513          	li	a0,45
     8e6:	ef81                	bnez	a5,8fe <WriteNum+0x64>
     8e8:	e401                	bnez	s0,8f0 <WriteNum+0x56>
     8ea:	0151                	addi	sp,sp,20
     8ec:	fbeff06f          	j	aa <__riscv_restore_0>
     8f0:	147d                	addi	s0,s0,-1
     8f2:	0ff47413          	andi	s0,s0,255
     8f6:	085c                	addi	a5,sp,20
     8f8:	97a2                	add	a5,a5,s0
     8fa:	ff47c503          	lbu	a0,-12(a5)
     8fe:	3365                	jal	6a6 <WriteChar>
     900:	b7e5                	j	8e8 <WriteNum+0x4e>
     902:	03000513          	li	a0,48
     906:	3345                	jal	6a6 <WriteChar>
     908:	b7cd                	j	8ea <WriteNum+0x50>

0000090a <WriteErrMsg>:
     90a:	f96ff2ef          	jal	t0,a0 <__riscv_save_0>
     90e:	842a                	mv	s0,a0
     910:	4529                	li	a0,10
     912:	3b51                	jal	6a6 <WriteChar>
     914:	04c00513          	li	a0,76
     918:	3379                	jal	6a6 <WriteChar>
     91a:	d551c503          	lbu	a0,-683(gp) # 2000058d <currentLine>
     91e:	3fb5                	jal	89a <WriteNum>
     920:	02000513          	li	a0,32
     924:	3349                	jal	6a6 <WriteChar>
     926:	00040503          	lb	a0,0(s0)
     92a:	e519                	bnez	a0,938 <WriteErrMsg+0x2e>
     92c:	4529                	li	a0,10
     92e:	3ba5                	jal	6a6 <WriteChar>
     930:	82018aa3          	sb	zero,-1995(gp) # 2000006d <RunMode>
     934:	f76ff06f          	j	aa <__riscv_restore_0>
     938:	0405                	addi	s0,s0,1
     93a:	0ff57513          	andi	a0,a0,255
     93e:	b7dd                	j	924 <WriteErrMsg+0x1a>

00000940 <DMA_Tx_Init>:
     940:	f60ff2ef          	jal	t0,a0 <__riscv_save_0>
     944:	fcc10113          	addi	sp,sp,-52
     948:	842a                	mv	s0,a0
     94a:	c22e                	sw	a1,4(sp)
     94c:	84b2                	mv	s1,a2
     94e:	4581                	li	a1,0
     950:	02c00613          	li	a2,44
     954:	0028                	addi	a0,sp,8
     956:	c036                	sw	a3,0(sp)
     958:	ff2ff0ef          	jal	ra,14a <memset>
     95c:	4585                	li	a1,1
     95e:	4505                	li	a0,1
     960:	2fe020ef          	jal	ra,2c5e <RCC_AHBPeriphClockCmd>
     964:	4792                	lw	a5,4(sp)
     966:	4682                	lw	a3,0(sp)
     968:	002c                	addi	a1,sp,8
     96a:	c43e                	sw	a5,8(sp)
     96c:	47c1                	li	a5,16
     96e:	c83e                	sw	a5,16(sp)
     970:	08000793          	li	a5,128
     974:	ce3e                	sw	a5,28(sp)
     976:	02000793          	li	a5,32
     97a:	d43e                	sw	a5,40(sp)
     97c:	8522                	mv	a0,s0
     97e:	678d                	lui	a5,0x3
     980:	c626                	sw	s1,12(sp)
     982:	ca36                	sw	a3,20(sp)
     984:	d63e                	sw	a5,44(sp)
     986:	cc02                	sw	zero,24(sp)
     988:	d002                	sw	zero,32(sp)
     98a:	d202                	sw	zero,36(sp)
     98c:	d802                	sw	zero,48(sp)
     98e:	6c9010ef          	jal	ra,2856 <DMA_Init>
     992:	03410113          	addi	sp,sp,52
     996:	f14ff06f          	j	aa <__riscv_restore_0>

0000099a <GPIO_InOut_INIT>:
     99a:	f06ff2ef          	jal	t0,a0 <__riscv_save_0>
     99e:	1151                	addi	sp,sp,-12
     9a0:	4585                	li	a1,1
     9a2:	03000513          	li	a0,48
     9a6:	c002                	sw	zero,0(sp)
     9a8:	c202                	sw	zero,4(sp)
     9aa:	c402                	sw	zero,8(sp)
     9ac:	2d0020ef          	jal	ra,2c7c <RCC_APB2PeriphClockCmd>
     9b0:	04800793          	li	a5,72
     9b4:	40011537          	lui	a0,0x40011
     9b8:	c43e                	sw	a5,8(sp)
     9ba:	858a                	mv	a1,sp
     9bc:	06000793          	li	a5,96
     9c0:	40050513          	addi	a0,a0,1024 # 40011400 <__global_pointer$+0x20010bc8>
     9c4:	807c                	sh	a5,0(sp)
     9c6:	733010ef          	jal	ra,28f8 <GPIO_Init>
     9ca:	478d                	li	a5,3
     9cc:	c23e                	sw	a5,4(sp)
     9ce:	47e1                	li	a5,24
     9d0:	c43e                	sw	a5,8(sp)
     9d2:	858a                	mv	a1,sp
     9d4:	05000793          	li	a5,80
     9d8:	40011537          	lui	a0,0x40011
     9dc:	807c                	sh	a5,0(sp)
     9de:	71b010ef          	jal	ra,28f8 <GPIO_Init>
     9e2:	47c1                	li	a5,16
     9e4:	c43e                	sw	a5,8(sp)
     9e6:	858a                	mv	a1,sp
     9e8:	47a5                	li	a5,9
     9ea:	40011537          	lui	a0,0x40011
     9ee:	807c                	sh	a5,0(sp)
     9f0:	709010ef          	jal	ra,28f8 <GPIO_Init>
     9f4:	0131                	addi	sp,sp,12
     9f6:	eb4ff06f          	j	aa <__riscv_restore_0>

000009fa <EXTI7_0_IRQHandler>:
     9fa:	400115b7          	lui	a1,0x40011
     9fe:	4085a783          	lw	a5,1032(a1) # 40011408 <__global_pointer$+0x20010bd0>
     a02:	8b89                	andi	a5,a5,2
     a04:	ebc1                	bnez	a5,a94 <EXTI7_0_IRQHandler+0x9a>
     a06:	8331c783          	lbu	a5,-1997(gp) # 2000006b <KbdReady>
     a0a:	83318613          	addi	a2,gp,-1997 # 2000006b <KbdReady>
     a0e:	e3d9                	bnez	a5,a94 <EXTI7_0_IRQHandler+0x9a>
     a10:	82f18793          	addi	a5,gp,-2001 # 20000067 <KbdBitCnt>
     a14:	2398                	lbu	a4,0(a5)
     a16:	83018313          	addi	t1,gp,-2000 # 20000068 <KbdBuffer>
     a1a:	0705                	addi	a4,a4,1
     a1c:	0ff77713          	andi	a4,a4,255
     a20:	a398                	sb	a4,0(a5)
     a22:	00035783          	lhu	a5,0(t1)
     a26:	458c                	lw	a1,8(a1)
     a28:	82f18513          	addi	a0,gp,-2001 # 20000067 <KbdBitCnt>
     a2c:	0786                	slli	a5,a5,0x1
     a2e:	07c2                	slli	a5,a5,0x10
     a30:	83c1                	srli	a5,a5,0x10
     a32:	00f31023          	sh	a5,0(t1)
     a36:	0805f593          	andi	a1,a1,128
     a3a:	83018693          	addi	a3,gp,-2000 # 20000068 <KbdBuffer>
     a3e:	c581                	beqz	a1,a46 <EXTI7_0_IRQHandler+0x4c>
     a40:	0017e793          	ori	a5,a5,1
     a44:	a29e                	sh	a5,0(a3)
     a46:	ff570793          	addi	a5,a4,-11
     a4a:	0017b793          	seqz	a5,a5
     a4e:	a21c                	sb	a5,0(a2)
     a50:	47ad                	li	a5,11
     a52:	04f71163          	bne	a4,a5,a94 <EXTI7_0_IRQHandler+0x9a>
     a56:	229a                	lhu	a4,0(a3)
     a58:	8309                	srli	a4,a4,0x2
     a5a:	0ff77713          	andi	a4,a4,255
     a5e:	433d                	li	t1,15
     a60:	83418793          	addi	a5,gp,-1996 # 2000006c <KbdStatus>
     a64:	83218593          	addi	a1,gp,-1998 # 2000006a <KbdData>
     a68:	02671f63          	bne	a4,t1,aa6 <EXTI7_0_IRQHandler+0xac>
     a6c:	2398                	lbu	a4,0(a5)
     a6e:	00876713          	ori	a4,a4,8
     a72:	a398                	sb	a4,0(a5)
     a74:	2198                	lbu	a4,0(a1)
     a76:	00069023          	sh	zero,0(a3)
     a7a:	00050023          	sb	zero,0(a0) # 40011000 <__global_pointer$+0x200107c8>
     a7e:	00060023          	sb	zero,0(a2)
     a82:	08c00693          	li	a3,140
     a86:	00e69763          	bne	a3,a4,a94 <EXTI7_0_IRQHandler+0x9a>
     a8a:	239c                	lbu	a5,0(a5)
     a8c:	8b85                	andi	a5,a5,1
     a8e:	c399                	beqz	a5,a94 <EXTI7_0_IRQHandler+0x9a>
     a90:	82018aa3          	sb	zero,-1995(gp) # 2000006d <RunMode>
     a94:	400107b7          	lui	a5,0x40010
     a98:	4709                	li	a4,2
     a9a:	40e7aa23          	sw	a4,1044(a5) # 40010414 <__global_pointer$+0x2000fbdc>
     a9e:	40078793          	addi	a5,a5,1024
     aa2:	30200073          	mret
     aa6:	04800313          	li	t1,72
     aaa:	00671d63          	bne	a4,t1,ac4 <EXTI7_0_IRQHandler+0xca>
     aae:	2398                	lbu	a4,0(a5)
     ab0:	8b21                	andi	a4,a4,8
     ab2:	c709                	beqz	a4,abc <EXTI7_0_IRQHandler+0xc2>
     ab4:	2398                	lbu	a4,0(a5)
     ab6:	0f577713          	andi	a4,a4,245
     aba:	bf65                	j	a72 <EXTI7_0_IRQHandler+0x78>
     abc:	2398                	lbu	a4,0(a5)
     abe:	00276713          	ori	a4,a4,2
     ac2:	bf45                	j	a72 <EXTI7_0_IRQHandler+0x78>
     ac4:	09a00313          	li	t1,154
     ac8:	00671d63          	bne	a4,t1,ae2 <EXTI7_0_IRQHandler+0xe8>
     acc:	2398                	lbu	a4,0(a5)
     ace:	8b21                	andi	a4,a4,8
     ad0:	c709                	beqz	a4,ada <EXTI7_0_IRQHandler+0xe0>
     ad2:	2398                	lbu	a4,0(a5)
     ad4:	0f377713          	andi	a4,a4,243
     ad8:	bf69                	j	a72 <EXTI7_0_IRQHandler+0x78>
     ada:	2398                	lbu	a4,0(a5)
     adc:	00476713          	ori	a4,a4,4
     ae0:	bf49                	j	a72 <EXTI7_0_IRQHandler+0x78>
     ae2:	02800313          	li	t1,40
     ae6:	00671d63          	bne	a4,t1,b00 <EXTI7_0_IRQHandler+0x106>
     aea:	2398                	lbu	a4,0(a5)
     aec:	8b21                	andi	a4,a4,8
     aee:	c709                	beqz	a4,af8 <EXTI7_0_IRQHandler+0xfe>
     af0:	2398                	lbu	a4,0(a5)
     af2:	0f677713          	andi	a4,a4,246
     af6:	bfb5                	j	a72 <EXTI7_0_IRQHandler+0x78>
     af8:	2398                	lbu	a4,0(a5)
     afa:	00176713          	ori	a4,a4,1
     afe:	bf95                	j	a72 <EXTI7_0_IRQHandler+0x78>
     b00:	0007c303          	lbu	t1,0(a5)
     b04:	00837313          	andi	t1,t1,8
     b08:	00030663          	beqz	t1,b14 <EXTI7_0_IRQHandler+0x11a>
     b0c:	2398                	lbu	a4,0(a5)
     b0e:	0f777713          	andi	a4,a4,247
     b12:	b785                	j	a72 <EXTI7_0_IRQHandler+0x78>
     b14:	a198                	sb	a4,0(a1)
     b16:	bfb9                	j	a74 <EXTI7_0_IRQHandler+0x7a>

00000b18 <TIM1_UP_IRQHandler>:
     b18:	40013537          	lui	a0,0x40013
     b1c:	1161                	addi	sp,sp,-8
     b1e:	4585                	li	a1,1
     b20:	c0050513          	addi	a0,a0,-1024 # 40012c00 <__global_pointer$+0x200123c8>
     b24:	c222                	sw	s0,4(sp)
     b26:	c026                	sw	s1,0(sp)
     b28:	302020ef          	jal	ra,2e2a <TIM_GetITStatus>
     b2c:	4785                	li	a5,1
     b2e:	0cf51663          	bne	a0,a5,bfa <TIM1_UP_IRQHandler+0xe2>
     b32:	d861d783          	lhu	a5,-634(gp) # 200005be <nVGAline>
     b36:	18f00713          	li	a4,399
     b3a:	d8618693          	addi	a3,gp,-634 # 200005be <nVGAline>
     b3e:	0cf76a63          	bltu	a4,a5,c12 <TIM1_UP_IRQHandler+0xfa>
     b42:	0017f713          	andi	a4,a5,1
     b46:	e359                	bnez	a4,bcc <TIM1_UP_IRQHandler+0xb4>
     b48:	d8218613          	addi	a2,gp,-638 # 200005ba <nDispChar>
     b4c:	2212                	lhu	a2,0(a2)
     b4e:	31f00593          	li	a1,799
     b52:	d8218713          	addi	a4,gp,-638 # 200005ba <nDispChar>
     b56:	00c5f463          	bgeu	a1,a2,b5e <TIM1_UP_IRQHandler+0x46>
     b5a:	00071023          	sh	zero,0(a4)
     b5e:	2312                	lhu	a2,0(a4)
     b60:	d8418593          	addi	a1,gp,-636 # 200005bc <nProcesChar>
     b64:	0642                	slli	a2,a2,0x10
     b66:	8241                	srli	a2,a2,0x10
     b68:	a192                	sh	a2,0(a1)
     b6a:	00679593          	slli	a1,a5,0x6
     b6e:	3805f593          	andi	a1,a1,896
     b72:	d8a18513          	addi	a0,gp,-630 # 200005c2 <rowPointer>
     b76:	638d                	lui	t2,0x3
     b78:	200002b7          	lui	t0,0x20000
     b7c:	a10e                	sh	a1,0(a0)
     b7e:	d8418313          	addi	t1,gp,-636 # 200005bc <nProcesChar>
     b82:	4581                	li	a1,0
     b84:	d8a18613          	addi	a2,gp,-630 # 200005c2 <rowPointer>
     b88:	83818093          	addi	ra,gp,-1992 # 20000070 <VideoRAM>
     b8c:	10838393          	addi	t2,t2,264 # 3108 <CharTable>
     b90:	03828293          	addi	t0,t0,56 # 20000038 <_edata>
     b94:	02000413          	li	s0,32
     b98:	220a                	lhu	a0,0(a2)
     b9a:	00035483          	lhu	s1,0(t1)
     b9e:	951e                	add	a0,a0,t2
     ba0:	94ae                	add	s1,s1,a1
     ba2:	9486                	add	s1,s1,ra
     ba4:	2084                	lbu	s1,0(s1)
     ba6:	9526                	add	a0,a0,s1
     ba8:	2104                	lbu	s1,0(a0)
     baa:	00b28533          	add	a0,t0,a1
     bae:	0585                	addi	a1,a1,1
     bb0:	a104                	sb	s1,0(a0)
     bb2:	fe8593e3          	bne	a1,s0,b98 <TIM1_UP_IRQHandler+0x80>
     bb6:	2212                	lhu	a2,0(a2)
     bb8:	37f00593          	li	a1,895
     bbc:	00c5f863          	bgeu	a1,a2,bcc <TIM1_UP_IRQHandler+0xb4>
     bc0:	2312                	lhu	a2,0(a4)
     bc2:	02060613          	addi	a2,a2,32
     bc6:	0642                	slli	a2,a2,0x10
     bc8:	8241                	srli	a2,a2,0x10
     bca:	a312                	sh	a2,0(a4)
     bcc:	0785                	addi	a5,a5,1
     bce:	07c2                	slli	a5,a5,0x10
     bd0:	83c1                	srli	a5,a5,0x10
     bd2:	20c00713          	li	a4,524
     bd6:	06f76163          	bltu	a4,a5,c38 <TIM1_UP_IRQHandler+0x120>
     bda:	a29e                	sh	a5,0(a3)
     bdc:	229e                	lhu	a5,0(a3)
     bde:	1cc00713          	li	a4,460
     be2:	04e79e63          	bne	a5,a4,c3e <TIM1_UP_IRQHandler+0x126>
     be6:	400117b7          	lui	a5,0x40011
     bea:	00080737          	lui	a4,0x80
     bee:	cb98                	sw	a4,16(a5)
     bf0:	ce818793          	addi	a5,gp,-792 # 20000520 <basTimer>
     bf4:	4398                	lw	a4,0(a5)
     bf6:	0705                	addi	a4,a4,1
     bf8:	c398                	sw	a4,0(a5)
     bfa:	40013537          	lui	a0,0x40013
     bfe:	4585                	li	a1,1
     c00:	c0050513          	addi	a0,a0,-1024 # 40012c00 <__global_pointer$+0x200123c8>
     c04:	23e020ef          	jal	ra,2e42 <TIM_ClearITPendingBit>
     c08:	4412                	lw	s0,4(sp)
     c0a:	4482                	lw	s1,0(sp)
     c0c:	0121                	addi	sp,sp,8
     c0e:	30200073          	mret
     c12:	19000713          	li	a4,400
     c16:	fae79be3          	bne	a5,a4,bcc <TIM1_UP_IRQHandler+0xb4>
     c1a:	20000637          	lui	a2,0x20000
     c1e:	4701                	li	a4,0
     c20:	03860613          	addi	a2,a2,56 # 20000038 <_edata>
     c24:	02000593          	li	a1,32
     c28:	00e60533          	add	a0,a2,a4
     c2c:	00050023          	sb	zero,0(a0)
     c30:	0705                	addi	a4,a4,1
     c32:	feb71be3          	bne	a4,a1,c28 <TIM1_UP_IRQHandler+0x110>
     c36:	bf59                	j	bcc <TIM1_UP_IRQHandler+0xb4>
     c38:	00069023          	sh	zero,0(a3)
     c3c:	b745                	j	bdc <TIM1_UP_IRQHandler+0xc4>
     c3e:	1ce00713          	li	a4,462
     c42:	fae797e3          	bne	a5,a4,bf0 <TIM1_UP_IRQHandler+0xd8>
     c46:	400117b7          	lui	a5,0x40011
     c4a:	4721                	li	a4,8
     c4c:	b74d                	j	bee <TIM1_UP_IRQHandler+0xd6>

00000c4e <TIM1_INT_Init>:
     c4e:	c52ff2ef          	jal	t0,a0 <__riscv_save_0>
     c52:	fc810113          	addi	sp,sp,-56
     c56:	4585                	li	a1,1
     c58:	6505                	lui	a0,0x1
     c5a:	d202                	sw	zero,36(sp)
     c5c:	d402                	sw	zero,40(sp)
     c5e:	d602                	sw	zero,44(sp)
     c60:	d802                	sw	zero,48(sp)
     c62:	02011a23          	sh	zero,52(sp)
     c66:	016020ef          	jal	ra,2c7c <RCC_APB2PeriphClockCmd>
     c6a:	77f1                	lui	a5,0xffffc
     c6c:	02f11223          	sh	a5,36(sp)
     c70:	020007b7          	lui	a5,0x2000
     c74:	0785                	addi	a5,a5,1
     c76:	d63e                	sw	a5,44(sp)
     c78:	104c                	addi	a1,sp,36
     c7a:	47a1                	li	a5,8
     c7c:	40013537          	lui	a0,0x40013
     c80:	40013437          	lui	s0,0x40013
     c84:	d83e                	sw	a5,48(sp)
     c86:	d402                	sw	zero,40(sp)
     c88:	030020ef          	jal	ra,2cb8 <SPI_Init>
     c8c:	201e                	lhu	a5,0(s0)
     c8e:	4605                	li	a2,1
     c90:	4589                	li	a1,2
     c92:	1007e793          	ori	a5,a5,256
     c96:	a01e                	sh	a5,0(s0)
     c98:	201e                	lhu	a5,0(s0)
     c9a:	40013537          	lui	a0,0x40013
     c9e:	0047e793          	ori	a5,a5,4
     ca2:	a01e                	sh	a5,0(s0)
     ca4:	060020ef          	jal	ra,2d04 <SPI_I2S_DMACmd>
     ca8:	4585                	li	a1,1
     caa:	40013537          	lui	a0,0x40013
     cae:	03c020ef          	jal	ra,2cea <SPI_Cmd>
     cb2:	6505                	lui	a0,0x1
     cb4:	4585                	li	a1,1
     cb6:	80050513          	addi	a0,a0,-2048 # 800 <WriteChar+0x15a>
     cba:	c002                	sw	zero,0(sp)
     cbc:	c202                	sw	zero,4(sp)
     cbe:	c402                	sw	zero,8(sp)
     cc0:	c602                	sw	zero,12(sp)
     cc2:	00011823          	sh	zero,16(sp)
     cc6:	ca02                	sw	zero,20(sp)
     cc8:	cc02                	sw	zero,24(sp)
     cca:	ce02                	sw	zero,28(sp)
     ccc:	d002                	sw	zero,32(sp)
     cce:	7af010ef          	jal	ra,2c7c <RCC_APB2PeriphClockCmd>
     cd2:	5df00793          	li	a5,1503
     cd6:	002c                	addi	a1,sp,8
     cd8:	c0040513          	addi	a0,s0,-1024 # 40012c00 <__global_pointer$+0x200123c8>
     cdc:	c63e                	sw	a5,12(sp)
     cde:	c402                	sw	zero,8(sp)
     ce0:	036020ef          	jal	ra,2d16 <TIM_TimeBaseInit>
     ce4:	c0040513          	addi	a0,s0,-1024
     ce8:	4585                	li	a1,1
     cea:	158020ef          	jal	ra,2e42 <TIM_ClearITPendingBit>
     cee:	4591                	li	a1,4
     cf0:	c0040513          	addi	a0,s0,-1024
     cf4:	14e020ef          	jal	ra,2e42 <TIM_ClearITPendingBit>
     cf8:	12300793          	li	a5,291
     cfc:	807c                	sh	a5,0(sp)
     cfe:	4785                	li	a5,1
     d00:	815c                	sb	a5,2(sp)
     d02:	850a                	mv	a0,sp
     d04:	4785                	li	a5,1
     d06:	c23e                	sw	a5,4(sp)
     d08:	64f010ef          	jal	ra,2b56 <NVIC_Init>
     d0c:	4605                	li	a2,1
     d0e:	c0040513          	addi	a0,s0,-1024
     d12:	4585                	li	a1,1
     d14:	0d4020ef          	jal	ra,2de8 <TIM_ITConfig>
     d18:	67c1                	lui	a5,0x10
     d1a:	06078793          	addi	a5,a5,96 # 10060 <_data_lma+0xc838>
     d1e:	ca3e                	sw	a5,20(sp)
     d20:	0b400793          	li	a5,180
     d24:	85fc                	sh	a5,26(sp)
     d26:	084c                	addi	a1,sp,20
     d28:	4789                	li	a5,2
     d2a:	c0040513          	addi	a0,s0,-1024
     d2e:	86fc                	sh	a5,28(sp)
     d30:	034020ef          	jal	ra,2d64 <TIM_OC4Init>
     d34:	c0040513          	addi	a0,s0,-1024
     d38:	4585                	li	a1,1
     d3a:	098020ef          	jal	ra,2dd2 <TIM_CtrlPWMOutputs>
     d3e:	c0040513          	addi	a0,s0,-1024
     d42:	4581                	li	a1,0
     d44:	0d0020ef          	jal	ra,2e14 <TIM_OC4PreloadConfig>
     d48:	4585                	li	a1,1
     d4a:	c0040513          	addi	a0,s0,-1024
     d4e:	0ac020ef          	jal	ra,2dfa <TIM_ARRPreloadConfig>
     d52:	03810113          	addi	sp,sp,56
     d56:	b54ff06f          	j	aa <__riscv_restore_0>

00000d5a <adc_init>:
     d5a:	400217b7          	lui	a5,0x40021
     d5e:	43d8                	lw	a4,4(a5)
     d60:	76c1                	lui	a3,0xffff0
     d62:	7ff68693          	addi	a3,a3,2047 # ffff07ff <__global_pointer$+0xdffeffc7>
     d66:	8f75                	and	a4,a4,a3
     d68:	c3d8                	sw	a4,4(a5)
     d6a:	4f98                	lw	a4,24(a5)
     d6c:	40011637          	lui	a2,0x40011
     d70:	fff106b7          	lui	a3,0xfff10
     d74:	20076713          	ori	a4,a4,512
     d78:	cf98                	sw	a4,24(a5)
     d7a:	40062703          	lw	a4,1024(a2) # 40011400 <__global_pointer$+0x20010bc8>
     d7e:	16fd                	addi	a3,a3,-1
     d80:	8f75                	and	a4,a4,a3
     d82:	40e62023          	sw	a4,1024(a2)
     d86:	47d8                	lw	a4,12(a5)
     d88:	ff2006b7          	lui	a3,0xff200
     d8c:	16fd                	addi	a3,a3,-1
     d8e:	20076713          	ori	a4,a4,512
     d92:	c7d8                	sw	a4,12(a5)
     d94:	47d8                	lw	a4,12(a5)
     d96:	dff77713          	andi	a4,a4,-513
     d9a:	c7d8                	sw	a4,12(a5)
     d9c:	400127b7          	lui	a5,0x40012
     da0:	4207a623          	sw	zero,1068(a5) # 4001242c <__global_pointer$+0x20011bf4>
     da4:	4207a823          	sw	zero,1072(a5)
     da8:	471d                	li	a4,7
     daa:	42e7aa23          	sw	a4,1076(a5)
     dae:	4107a703          	lw	a4,1040(a5)
     db2:	8f75                	and	a4,a4,a3
     db4:	40e7a823          	sw	a4,1040(a5)
     db8:	4107a703          	lw	a4,1040(a5)
     dbc:	00e006b7          	lui	a3,0xe00
     dc0:	8f55                	or	a4,a4,a3
     dc2:	40e7a823          	sw	a4,1040(a5)
     dc6:	4087a703          	lw	a4,1032(a5)
     dca:	000e06b7          	lui	a3,0xe0
     dce:	0685                	addi	a3,a3,1
     dd0:	8f55                	or	a4,a4,a3
     dd2:	40e7a423          	sw	a4,1032(a5)
     dd6:	4087a703          	lw	a4,1032(a5)
     dda:	400126b7          	lui	a3,0x40012
     dde:	00876713          	ori	a4,a4,8
     de2:	40e7a423          	sw	a4,1032(a5)
     de6:	4086a703          	lw	a4,1032(a3) # 40012408 <__global_pointer$+0x20011bd0>
     dea:	8b21                	andi	a4,a4,8
     dec:	ff6d                	bnez	a4,de6 <adc_init+0x8c>
     dee:	4086a703          	lw	a4,1032(a3)
     df2:	00476713          	ori	a4,a4,4
     df6:	40e6a423          	sw	a4,1032(a3)
     dfa:	40012737          	lui	a4,0x40012
     dfe:	40872783          	lw	a5,1032(a4) # 40012408 <__global_pointer$+0x20011bd0>
     e02:	8b91                	andi	a5,a5,4
     e04:	ffed                	bnez	a5,dfe <adc_init+0xa4>
     e06:	8082                	ret

00000e08 <IIC_Init>:
     e08:	a98ff2ef          	jal	t0,a0 <__riscv_save_0>
     e0c:	1111                	addi	sp,sp,-28
     e0e:	84aa                	mv	s1,a0
     e10:	842e                	mv	s0,a1
     e12:	4545                	li	a0,17
     e14:	4585                	li	a1,1
     e16:	c002                	sw	zero,0(sp)
     e18:	c202                	sw	zero,4(sp)
     e1a:	c402                	sw	zero,8(sp)
     e1c:	c602                	sw	zero,12(sp)
     e1e:	c802                	sw	zero,16(sp)
     e20:	ca02                	sw	zero,20(sp)
     e22:	cc02                	sw	zero,24(sp)
     e24:	659010ef          	jal	ra,2c7c <RCC_APB2PeriphClockCmd>
     e28:	4585                	li	a1,1
     e2a:	00200537          	lui	a0,0x200
     e2e:	66d010ef          	jal	ra,2c9a <RCC_APB1PeriphClockCmd>
     e32:	4791                	li	a5,4
     e34:	807c                	sh	a5,0(sp)
     e36:	47f1                	li	a5,28
     e38:	c43e                	sw	a5,8(sp)
     e3a:	858a                	mv	a1,sp
     e3c:	478d                	li	a5,3
     e3e:	40011537          	lui	a0,0x40011
     e42:	c23e                	sw	a5,4(sp)
     e44:	2b5010ef          	jal	ra,28f8 <GPIO_Init>
     e48:	4789                	li	a5,2
     e4a:	858a                	mv	a1,sp
     e4c:	40011537          	lui	a0,0x40011
     e50:	807c                	sh	a5,0(sp)
     e52:	2a7010ef          	jal	ra,28f8 <GPIO_Init>
     e56:	400007b7          	lui	a5,0x40000
     e5a:	c83e                	sw	a5,16(sp)
     e5c:	82e0                	sh	s0,20(sp)
     e5e:	40000793          	li	a5,1024
     e62:	40005437          	lui	s0,0x40005
     e66:	83fc                	sh	a5,22(sp)
     e68:	006c                	addi	a1,sp,12
     e6a:	6791                	lui	a5,0x4
     e6c:	40040513          	addi	a0,s0,1024 # 40005400 <__global_pointer$+0x20004bc8>
     e70:	84fc                	sh	a5,24(sp)
     e72:	c626                	sw	s1,12(sp)
     e74:	335010ef          	jal	ra,29a8 <I2C_Init>
     e78:	4585                	li	a1,1
     e7a:	40040513          	addi	a0,s0,1024
     e7e:	40d010ef          	jal	ra,2a8a <I2C_Cmd>
     e82:	0171                	addi	sp,sp,28
     e84:	a26ff06f          	j	aa <__riscv_restore_0>

00000e88 <CheckI2CDevice>:
     e88:	a18ff2ef          	jal	t0,a0 <__riscv_save_0>
     e8c:	40005437          	lui	s0,0x40005
     e90:	1171                	addi	sp,sp,-4
     e92:	84aa                	mv	s1,a0
     e94:	40040793          	addi	a5,s0,1024 # 40005400 <__global_pointer$+0x20004bc8>
     e98:	853e                	mv	a0,a5
     e9a:	000205b7          	lui	a1,0x20
     e9e:	487010ef          	jal	ra,2b24 <I2C_GetFlagStatus>
     ea2:	400057b7          	lui	a5,0x40005
     ea6:	40078793          	addi	a5,a5,1024 # 40005400 <__global_pointer$+0x20004bc8>
     eaa:	f57d                	bnez	a0,e98 <CheckI2CDevice+0x10>
     eac:	40040513          	addi	a0,s0,1024
     eb0:	4585                	li	a1,1
     eb2:	00030437          	lui	s0,0x30
     eb6:	3ed010ef          	jal	ra,2aa2 <I2C_GenerateSTART>
     eba:	0405                	addi	s0,s0,1
     ebc:	400057b7          	lui	a5,0x40005
     ec0:	40078513          	addi	a0,a5,1024 # 40005400 <__global_pointer$+0x20004bc8>
     ec4:	85a2                	mv	a1,s0
     ec6:	449010ef          	jal	ra,2b0e <I2C_CheckEvent>
     eca:	400057b7          	lui	a5,0x40005
     ece:	d57d                	beqz	a0,ebc <CheckI2CDevice+0x34>
     ed0:	40078513          	addi	a0,a5,1024 # 40005400 <__global_pointer$+0x20004bc8>
     ed4:	4601                	li	a2,0
     ed6:	85a6                	mv	a1,s1
     ed8:	425010ef          	jal	ra,2afc <I2C_Send7bitAddress>
     edc:	ce818713          	addi	a4,gp,-792 # 20000520 <basTimer>
     ee0:	4318                	lw	a4,0(a4)
     ee2:	ce818413          	addi	s0,gp,-792 # 20000520 <basTimer>
     ee6:	000707b7          	lui	a5,0x70
     eea:	08278793          	addi	a5,a5,130 # 70082 <_data_lma+0x6c85a>
     eee:	400054b7          	lui	s1,0x40005
     ef2:	85be                	mv	a1,a5
     ef4:	40048513          	addi	a0,s1,1024 # 40005400 <__global_pointer$+0x20004bc8>
     ef8:	c03a                	sw	a4,0(sp)
     efa:	415010ef          	jal	ra,2b0e <I2C_CheckEvent>
     efe:	000707b7          	lui	a5,0x70
     f02:	08278793          	addi	a5,a5,130 # 70082 <_data_lma+0x6c85a>
     f06:	4702                	lw	a4,0(sp)
     f08:	c901                	beqz	a0,f18 <CheckI2CDevice+0x90>
     f0a:	40048513          	addi	a0,s1,1024
     f0e:	4585                	li	a1,1
     f10:	3ad010ef          	jal	ra,2abc <I2C_GenerateSTOP>
     f14:	4505                	li	a0,1
     f16:	a821                	j	f2e <CheckI2CDevice+0xa6>
     f18:	4014                	lw	a3,0(s0)
     f1a:	06470613          	addi	a2,a4,100
     f1e:	fcd678e3          	bgeu	a2,a3,eee <CheckI2CDevice+0x66>
     f22:	40048513          	addi	a0,s1,1024
     f26:	4585                	li	a1,1
     f28:	395010ef          	jal	ra,2abc <I2C_GenerateSTOP>
     f2c:	4501                	li	a0,0
     f2e:	0111                	addi	sp,sp,4
     f30:	97aff06f          	j	aa <__riscv_restore_0>

00000f34 <I2C_write_address>:
     f34:	96cff2ef          	jal	t0,a0 <__riscv_save_0>
     f38:	400054b7          	lui	s1,0x40005
     f3c:	842a                	mv	s0,a0
     f3e:	40048793          	addi	a5,s1,1024 # 40005400 <__global_pointer$+0x20004bc8>
     f42:	853e                	mv	a0,a5
     f44:	000205b7          	lui	a1,0x20
     f48:	3dd010ef          	jal	ra,2b24 <I2C_GetFlagStatus>
     f4c:	400057b7          	lui	a5,0x40005
     f50:	40078793          	addi	a5,a5,1024 # 40005400 <__global_pointer$+0x20004bc8>
     f54:	f57d                	bnez	a0,f42 <I2C_write_address+0xe>
     f56:	40048513          	addi	a0,s1,1024
     f5a:	4585                	li	a1,1
     f5c:	000304b7          	lui	s1,0x30
     f60:	343010ef          	jal	ra,2aa2 <I2C_GenerateSTART>
     f64:	0485                	addi	s1,s1,1
     f66:	400057b7          	lui	a5,0x40005
     f6a:	40078513          	addi	a0,a5,1024 # 40005400 <__global_pointer$+0x20004bc8>
     f6e:	85a6                	mv	a1,s1
     f70:	39f010ef          	jal	ra,2b0e <I2C_CheckEvent>
     f74:	400057b7          	lui	a5,0x40005
     f78:	d57d                	beqz	a0,f66 <I2C_write_address+0x32>
     f7a:	d541c583          	lbu	a1,-684(gp) # 2000058c <compFlags>
     f7e:	4601                	li	a2,0
     f80:	40078513          	addi	a0,a5,1024 # 40005400 <__global_pointer$+0x20004bc8>
     f84:	89bd                	andi	a1,a1,15
     f86:	0a05e593          	ori	a1,a1,160
     f8a:	000704b7          	lui	s1,0x70
     f8e:	36f010ef          	jal	ra,2afc <I2C_Send7bitAddress>
     f92:	08248493          	addi	s1,s1,130 # 70082 <_data_lma+0x6c85a>
     f96:	400057b7          	lui	a5,0x40005
     f9a:	40078513          	addi	a0,a5,1024 # 40005400 <__global_pointer$+0x20004bc8>
     f9e:	85a6                	mv	a1,s1
     fa0:	36f010ef          	jal	ra,2b0e <I2C_CheckEvent>
     fa4:	400057b7          	lui	a5,0x40005
     fa8:	d57d                	beqz	a0,f96 <I2C_write_address+0x62>
     faa:	d881c583          	lbu	a1,-632(gp) # 200005c0 <noOfMemory>
     fae:	00345713          	srli	a4,s0,0x3
     fb2:	40078513          	addi	a0,a5,1024 # 40005400 <__global_pointer$+0x20004bc8>
     fb6:	0592                	slli	a1,a1,0x4
     fb8:	8dd9                	or	a1,a1,a4
     fba:	0ff5f593          	andi	a1,a1,255
     fbe:	000704b7          	lui	s1,0x70
     fc2:	32f010ef          	jal	ra,2af0 <I2C_SendData>
     fc6:	08448493          	addi	s1,s1,132 # 70084 <_data_lma+0x6c85c>
     fca:	400057b7          	lui	a5,0x40005
     fce:	40078513          	addi	a0,a5,1024 # 40005400 <__global_pointer$+0x20004bc8>
     fd2:	85a6                	mv	a1,s1
     fd4:	33b010ef          	jal	ra,2b0e <I2C_CheckEvent>
     fd8:	400057b7          	lui	a5,0x40005
     fdc:	d57d                	beqz	a0,fca <I2C_write_address+0x96>
     fde:	00541593          	slli	a1,s0,0x5
     fe2:	0e05f593          	andi	a1,a1,224
     fe6:	40078513          	addi	a0,a5,1024 # 40005400 <__global_pointer$+0x20004bc8>
     fea:	307010ef          	jal	ra,2af0 <I2C_SendData>
     fee:	8bcff06f          	j	aa <__riscv_restore_0>

00000ff2 <I2C_write_line>:
     ff2:	8aeff2ef          	jal	t0,a0 <__riscv_save_0>
     ff6:	3f3d                	jal	f34 <I2C_write_address>
     ff8:	02000493          	li	s1,32
     ffc:	d6018413          	addi	s0,gp,-672 # 20000598 <line_buffer>
    1000:	000707b7          	lui	a5,0x70
    1004:	08478793          	addi	a5,a5,132 # 70084 <_data_lma+0x6c85c>
    1008:	400056b7          	lui	a3,0x40005
    100c:	85be                	mv	a1,a5
    100e:	40068513          	addi	a0,a3,1024 # 40005400 <__global_pointer$+0x20004bc8>
    1012:	2fd010ef          	jal	ra,2b0e <I2C_CheckEvent>
    1016:	000707b7          	lui	a5,0x70
    101a:	400056b7          	lui	a3,0x40005
    101e:	08478793          	addi	a5,a5,132 # 70084 <_data_lma+0x6c85c>
    1022:	d17d                	beqz	a0,1008 <I2C_write_line+0x16>
    1024:	d5c18713          	addi	a4,gp,-676 # 20000594 <linePointer>
    1028:	231c                	lbu	a5,0(a4)
    102a:	40068513          	addi	a0,a3,1024 # 40005400 <__global_pointer$+0x20004bc8>
    102e:	14fd                	addi	s1,s1,-1
    1030:	00178613          	addi	a2,a5,1
    1034:	97a2                	add	a5,a5,s0
    1036:	238c                	lbu	a1,0(a5)
    1038:	a310                	sb	a2,0(a4)
    103a:	2b7010ef          	jal	ra,2af0 <I2C_SendData>
    103e:	f0e9                	bnez	s1,1000 <I2C_write_line+0xe>
    1040:	00070437          	lui	s0,0x70
    1044:	08440413          	addi	s0,s0,132 # 70084 <_data_lma+0x6c85c>
    1048:	400054b7          	lui	s1,0x40005
    104c:	85a2                	mv	a1,s0
    104e:	40048513          	addi	a0,s1,1024 # 40005400 <__global_pointer$+0x20004bc8>
    1052:	2bd010ef          	jal	ra,2b0e <I2C_CheckEvent>
    1056:	d96d                	beqz	a0,1048 <I2C_write_line+0x56>
    1058:	4585                	li	a1,1
    105a:	40048513          	addi	a0,s1,1024
    105e:	25f010ef          	jal	ra,2abc <I2C_GenerateSTOP>
    1062:	848ff06f          	j	aa <__riscv_restore_0>

00001066 <I2C_read_line>:
    1066:	83aff2ef          	jal	t0,a0 <__riscv_save_0>
    106a:	00070437          	lui	s0,0x70
    106e:	35d9                	jal	f34 <I2C_write_address>
    1070:	08440413          	addi	s0,s0,132 # 70084 <_data_lma+0x6c85c>
    1074:	400054b7          	lui	s1,0x40005
    1078:	85a2                	mv	a1,s0
    107a:	40048513          	addi	a0,s1,1024 # 40005400 <__global_pointer$+0x20004bc8>
    107e:	291010ef          	jal	ra,2b0e <I2C_CheckEvent>
    1082:	d96d                	beqz	a0,1074 <I2C_read_line+0xe>
    1084:	40048513          	addi	a0,s1,1024
    1088:	4585                	li	a1,1
    108a:	40005437          	lui	s0,0x40005
    108e:	22f010ef          	jal	ra,2abc <I2C_GenerateSTOP>
    1092:	40040493          	addi	s1,s0,1024 # 40005400 <__global_pointer$+0x20004bc8>
    1096:	000205b7          	lui	a1,0x20
    109a:	8526                	mv	a0,s1
    109c:	289010ef          	jal	ra,2b24 <I2C_GetFlagStatus>
    10a0:	f97d                	bnez	a0,1096 <I2C_read_line+0x30>
    10a2:	40040513          	addi	a0,s0,1024
    10a6:	4585                	li	a1,1
    10a8:	00030437          	lui	s0,0x30
    10ac:	1f7010ef          	jal	ra,2aa2 <I2C_GenerateSTART>
    10b0:	0405                	addi	s0,s0,1
    10b2:	400054b7          	lui	s1,0x40005
    10b6:	85a2                	mv	a1,s0
    10b8:	40048513          	addi	a0,s1,1024 # 40005400 <__global_pointer$+0x20004bc8>
    10bc:	253010ef          	jal	ra,2b0e <I2C_CheckEvent>
    10c0:	d96d                	beqz	a0,10b2 <I2C_read_line+0x4c>
    10c2:	d541c583          	lbu	a1,-684(gp) # 2000058c <compFlags>
    10c6:	4605                	li	a2,1
    10c8:	40048513          	addi	a0,s1,1024
    10cc:	89bd                	andi	a1,a1,15
    10ce:	0a05e593          	ori	a1,a1,160
    10d2:	00030437          	lui	s0,0x30
    10d6:	227010ef          	jal	ra,2afc <I2C_Send7bitAddress>
    10da:	0409                	addi	s0,s0,2
    10dc:	400054b7          	lui	s1,0x40005
    10e0:	85a2                	mv	a1,s0
    10e2:	40048513          	addi	a0,s1,1024 # 40005400 <__global_pointer$+0x20004bc8>
    10e6:	229010ef          	jal	ra,2b0e <I2C_CheckEvent>
    10ea:	d96d                	beqz	a0,10dc <I2C_read_line+0x76>
    10ec:	40048513          	addi	a0,s1,1024
    10f0:	4585                	li	a1,1
    10f2:	1e5010ef          	jal	ra,2ad6 <I2C_AcknowledgeConfig>
    10f6:	4401                	li	s0,0
    10f8:	d6018493          	addi	s1,gp,-672 # 20000598 <line_buffer>
    10fc:	000307b7          	lui	a5,0x30
    1100:	04078793          	addi	a5,a5,64 # 30040 <_data_lma+0x2c818>
    1104:	40005737          	lui	a4,0x40005
    1108:	85be                	mv	a1,a5
    110a:	40070513          	addi	a0,a4,1024 # 40005400 <__global_pointer$+0x20004bc8>
    110e:	201010ef          	jal	ra,2b0e <I2C_CheckEvent>
    1112:	000307b7          	lui	a5,0x30
    1116:	40005737          	lui	a4,0x40005
    111a:	04078793          	addi	a5,a5,64 # 30040 <_data_lma+0x2c818>
    111e:	d17d                	beqz	a0,1104 <I2C_read_line+0x9e>
    1120:	40070513          	addi	a0,a4,1024 # 40005400 <__global_pointer$+0x20004bc8>
    1124:	1d1010ef          	jal	ra,2af4 <I2C_ReceiveData>
    1128:	008487b3          	add	a5,s1,s0
    112c:	a388                	sb	a0,0(a5)
    112e:	47fd                	li	a5,31
    1130:	00f40763          	beq	s0,a5,113e <I2C_read_line+0xd8>
    1134:	0ff00793          	li	a5,255
    1138:	0405                	addi	s0,s0,1
    113a:	fcf511e3          	bne	a0,a5,10fc <I2C_read_line+0x96>
    113e:	40005537          	lui	a0,0x40005
    1142:	4585                	li	a1,1
    1144:	40050513          	addi	a0,a0,1024 # 40005400 <__global_pointer$+0x20004bc8>
    1148:	175010ef          	jal	ra,2abc <I2C_GenerateSTOP>
    114c:	f5ffe06f          	j	aa <__riscv_restore_0>

00001150 <PrintBasLine>:
    1150:	f51fe2ef          	jal	t0,a0 <__riscv_save_0>
    1154:	84aa                	mv	s1,a0
    1156:	0ff57513          	andi	a0,a0,255
    115a:	3731                	jal	1066 <I2C_read_line>
    115c:	d601c703          	lbu	a4,-672(gp) # 20000598 <line_buffer>
    1160:	0ff00793          	li	a5,255
    1164:	4501                	li	a0,0
    1166:	04f70663          	beq	a4,a5,11b2 <PrintBasLine+0x62>
    116a:	47a5                	li	a5,9
    116c:	d6018413          	addi	s0,gp,-672 # 20000598 <line_buffer>
    1170:	0097eb63          	bltu	a5,s1,1186 <PrintBasLine+0x36>
    1174:	02000513          	li	a0,32
    1178:	d2eff0ef          	jal	ra,6a6 <WriteChar>
    117c:	02000513          	li	a0,32
    1180:	d26ff0ef          	jal	ra,6a6 <WriteChar>
    1184:	a029                	j	118e <PrintBasLine+0x3e>
    1186:	06300793          	li	a5,99
    118a:	fe97f9e3          	bgeu	a5,s1,117c <PrintBasLine+0x2c>
    118e:	8526                	mv	a0,s1
    1190:	f0aff0ef          	jal	ra,89a <WriteNum>
    1194:	02000513          	li	a0,32
    1198:	d0eff0ef          	jal	ra,6a6 <WriteChar>
    119c:	0405                	addi	s0,s0,1
    119e:	fff44503          	lbu	a0,-1(s0) # 2ffff <_data_lma+0x2c7d7>
    11a2:	0ff00793          	li	a5,255
    11a6:	fef519e3          	bne	a0,a5,1198 <PrintBasLine+0x48>
    11aa:	4529                	li	a0,10
    11ac:	cfaff0ef          	jal	ra,6a6 <WriteChar>
    11b0:	4505                	li	a0,1
    11b2:	ef9fe06f          	j	aa <__riscv_restore_0>

000011b6 <RemoveWhtSP>:
    11b6:	d5c1c703          	lbu	a4,-676(gp) # 20000594 <linePointer>
    11ba:	4581                	li	a1,0
    11bc:	d5c18793          	addi	a5,gp,-676 # 20000594 <linePointer>
    11c0:	d6018693          	addi	a3,gp,-672 # 20000598 <line_buffer>
    11c4:	02000513          	li	a0,32
    11c8:	00e68333          	add	t1,a3,a4
    11cc:	00034303          	lbu	t1,0(t1)
    11d0:	00170613          	addi	a2,a4,1
    11d4:	0ff67613          	andi	a2,a2,255
    11d8:	00a30563          	beq	t1,a0,11e2 <RemoveWhtSP+0x2c>
    11dc:	c191                	beqz	a1,11e0 <RemoveWhtSP+0x2a>
    11de:	a398                	sb	a4,0(a5)
    11e0:	8082                	ret
    11e2:	8732                	mv	a4,a2
    11e4:	4585                	li	a1,1
    11e6:	b7cd                	j	11c8 <RemoveWhtSP+0x12>

000011e8 <RemoveNextWhtSP>:
    11e8:	d5c18693          	addi	a3,gp,-676 # 20000594 <linePointer>
    11ec:	229c                	lbu	a5,0(a3)
    11ee:	4581                	li	a1,0
    11f0:	d5c18713          	addi	a4,gp,-676 # 20000594 <linePointer>
    11f4:	0785                	addi	a5,a5,1
    11f6:	0ff7f793          	andi	a5,a5,255
    11fa:	a29c                	sb	a5,0(a3)
    11fc:	d6018693          	addi	a3,gp,-672 # 20000598 <line_buffer>
    1200:	02000513          	li	a0,32
    1204:	00f68333          	add	t1,a3,a5
    1208:	00034303          	lbu	t1,0(t1)
    120c:	00178613          	addi	a2,a5,1
    1210:	0ff67613          	andi	a2,a2,255
    1214:	00a30563          	beq	t1,a0,121e <RemoveNextWhtSP+0x36>
    1218:	c191                	beqz	a1,121c <RemoveNextWhtSP+0x34>
    121a:	a31c                	sb	a5,0(a4)
    121c:	8082                	ret
    121e:	87b2                	mv	a5,a2
    1220:	4585                	li	a1,1
    1222:	b7cd                	j	1204 <RemoveNextWhtSP+0x1c>

00001224 <isNumberNext>:
    1224:	d5c1c783          	lbu	a5,-676(gp) # 20000594 <linePointer>
    1228:	d6018613          	addi	a2,gp,-672 # 20000598 <line_buffer>
    122c:	963e                	add	a2,a2,a5
    122e:	2210                	lbu	a2,0(a2)
    1230:	d401ac23          	sw	zero,-680(gp) # 20000590 <evalNumber>
    1234:	06200313          	li	t1,98
    1238:	d5818593          	addi	a1,gp,-680 # 20000590 <evalNumber>
    123c:	d5c18693          	addi	a3,gp,-676 # 20000594 <linePointer>
    1240:	d6018713          	addi	a4,gp,-672 # 20000598 <line_buffer>
    1244:	04661c63          	bne	a2,t1,129c <isNumberNext+0x78>
    1248:	0785                	addi	a5,a5,1
    124a:	0ff7f793          	andi	a5,a5,255
    124e:	00f70633          	add	a2,a4,a5
    1252:	00064303          	lbu	t1,0(a2)
    1256:	a29c                	sb	a5,0(a3)
    1258:	4385                	li	t2,1
    125a:	fd030313          	addi	t1,t1,-48
    125e:	0ff37313          	andi	t1,t1,255
    1262:	4601                	li	a2,0
    1264:	4285                	li	t0,1
    1266:	0063f463          	bgeu	t2,t1,126e <isNumberNext+0x4a>
    126a:	4501                	li	a0,0
    126c:	8082                	ret
    126e:	00f70333          	add	t1,a4,a5
    1272:	00034303          	lbu	t1,0(t1)
    1276:	0785                	addi	a5,a5,1
    1278:	0606                	slli	a2,a2,0x1
    127a:	00137313          	andi	t1,t1,1
    127e:	0ff7f793          	andi	a5,a5,255
    1282:	961a                	add	a2,a2,t1
    1284:	00f70333          	add	t1,a4,a5
    1288:	00034303          	lbu	t1,0(t1)
    128c:	fd030313          	addi	t1,t1,-48
    1290:	0ff37313          	andi	t1,t1,255
    1294:	fc62fde3          	bgeu	t0,t1,126e <isNumberNext+0x4a>
    1298:	c190                	sw	a2,0(a1)
    129a:	a099                	j	12e0 <isNumberNext+0xbc>
    129c:	fd060613          	addi	a2,a2,-48
    12a0:	0ff67613          	andi	a2,a2,255
    12a4:	4325                	li	t1,9
    12a6:	fcc362e3          	bltu	t1,a2,126a <isNumberNext+0x46>
    12aa:	4281                	li	t0,0
    12ac:	00f70633          	add	a2,a4,a5
    12b0:	00064383          	lbu	t2,0(a2)
    12b4:	00229613          	slli	a2,t0,0x2
    12b8:	9616                	add	a2,a2,t0
    12ba:	0785                	addi	a5,a5,1
    12bc:	0606                	slli	a2,a2,0x1
    12be:	00f3f393          	andi	t2,t2,15
    12c2:	0ff7f793          	andi	a5,a5,255
    12c6:	00c382b3          	add	t0,t2,a2
    12ca:	00f70633          	add	a2,a4,a5
    12ce:	2210                	lbu	a2,0(a2)
    12d0:	fd060613          	addi	a2,a2,-48
    12d4:	0ff67613          	andi	a2,a2,255
    12d8:	fcc37ae3          	bgeu	t1,a2,12ac <isNumberNext+0x88>
    12dc:	0055a023          	sw	t0,0(a1) # 20000 <_data_lma+0x1c7d8>
    12e0:	a29c                	sb	a5,0(a3)
    12e2:	d5818513          	addi	a0,gp,-680 # 20000590 <evalNumber>
    12e6:	8082                	ret

000012e8 <isVariableNext>:
    12e8:	d5c18693          	addi	a3,gp,-676 # 20000594 <linePointer>
    12ec:	229c                	lbu	a5,0(a3)
    12ee:	d6018613          	addi	a2,gp,-672 # 20000598 <line_buffer>
    12f2:	00f60733          	add	a4,a2,a5
    12f6:	2318                	lbu	a4,0(a4)
    12f8:	04000593          	li	a1,64
    12fc:	0ab71063          	bne	a4,a1,139c <isVariableNext+0xb4>
    1300:	da1fe2ef          	jal	t0,a0 <__riscv_save_0>
    1304:	00178713          	addi	a4,a5,1
    1308:	0ff77713          	andi	a4,a4,255
    130c:	a298                	sb	a4,0(a3)
    130e:	9732                	add	a4,a4,a2
    1310:	2308                	lbu	a0,0(a4)
    1312:	45e5                	li	a1,25
    1314:	fbf50713          	addi	a4,a0,-65
    1318:	0ff77313          	andi	t1,a4,255
    131c:	0265ed63          	bltu	a1,t1,1356 <isVariableNext+0x6e>
    1320:	00271613          	slli	a2,a4,0x2
    1324:	cec18713          	addi	a4,gp,-788 # 20000524 <charVariable>
    1328:	9732                	add	a4,a4,a2
    132a:	4308                	lw	a0,0(a4)
    132c:	0789                	addi	a5,a5,2
    132e:	a29c                	sb	a5,0(a3)
    1330:	06300793          	li	a5,99
    1334:	00a7e963          	bltu	a5,a0,1346 <isVariableNext+0x5e>
    1338:	00251793          	slli	a5,a0,0x2
    133c:	b5818513          	addi	a0,gp,-1192 # 20000390 <arrayVariable>
    1340:	953e                	add	a0,a0,a5
    1342:	d69fe06f          	j	aa <__riscv_restore_0>
    1346:	00003537          	lui	a0,0x3
    134a:	7b050513          	addi	a0,a0,1968 # 37b0 <KeyWordTab+0x2a8>
    134e:	dbcff0ef          	jal	ra,90a <WriteErrMsg>
    1352:	4501                	li	a0,0
    1354:	b7fd                	j	1342 <isVariableNext+0x5a>
    1356:	fd050713          	addi	a4,a0,-48
    135a:	0ff77713          	andi	a4,a4,255
    135e:	45a5                	li	a1,9
    1360:	02e5e963          	bltu	a1,a4,1392 <isVariableNext+0xaa>
    1364:	00278713          	addi	a4,a5,2
    1368:	0ff77713          	andi	a4,a4,255
    136c:	963a                	add	a2,a2,a4
    136e:	2210                	lbu	a2,0(a2)
    1370:	a298                	sb	a4,0(a3)
    1372:	893d                	andi	a0,a0,15
    1374:	fd060713          	addi	a4,a2,-48
    1378:	0ff77713          	andi	a4,a4,255
    137c:	fae5eee3          	bltu	a1,a4,1338 <isVariableNext+0x50>
    1380:	00251713          	slli	a4,a0,0x2
    1384:	953a                	add	a0,a0,a4
    1386:	0506                	slli	a0,a0,0x1
    1388:	8a3d                	andi	a2,a2,15
    138a:	078d                	addi	a5,a5,3
    138c:	9532                	add	a0,a0,a2
    138e:	a29c                	sb	a5,0(a3)
    1390:	b765                	j	1338 <isVariableNext+0x50>
    1392:	00003537          	lui	a0,0x3
    1396:	7c050513          	addi	a0,a0,1984 # 37c0 <KeyWordTab+0x2b8>
    139a:	bf55                	j	134e <isVariableNext+0x66>
    139c:	fbf70613          	addi	a2,a4,-65
    13a0:	0ff67613          	andi	a2,a2,255
    13a4:	45e5                	li	a1,25
    13a6:	4501                	li	a0,0
    13a8:	00c5eb63          	bltu	a1,a2,13be <isVariableNext+0xd6>
    13ac:	070a                	slli	a4,a4,0x2
    13ae:	0785                	addi	a5,a5,1
    13b0:	efc70713          	addi	a4,a4,-260
    13b4:	cec18513          	addi	a0,gp,-788 # 20000524 <charVariable>
    13b8:	a29c                	sb	a5,0(a3)
    13ba:	953a                	add	a0,a0,a4
    13bc:	8082                	ret
    13be:	8082                	ret

000013c0 <isFactor>:
    13c0:	ce1fe2ef          	jal	t0,a0 <__riscv_save_0>
    13c4:	3715                	jal	12e8 <isVariableNext>
    13c6:	e111                	bnez	a0,13ca <isFactor+0xa>
    13c8:	3db1                	jal	1224 <isNumberNext>
    13ca:	ce1fe06f          	j	aa <__riscv_restore_0>

000013ce <isTerm>:
    13ce:	cd3fe2ef          	jal	t0,a0 <__riscv_save_0>
    13d2:	1171                	addi	sp,sp,-4
    13d4:	37f5                	jal	13c0 <isFactor>
    13d6:	87aa                	mv	a5,a0
    13d8:	c935                	beqz	a0,144c <isTerm+0x7e>
    13da:	4100                	lw	s0,0(a0)
    13dc:	d6018493          	addi	s1,gp,-672 # 20000598 <line_buffer>
    13e0:	3bd9                	jal	11b6 <RemoveWhtSP>
    13e2:	d5c1c783          	lbu	a5,-676(gp) # 20000594 <linePointer>
    13e6:	02f00713          	li	a4,47
    13ea:	97a6                	add	a5,a5,s1
    13ec:	239c                	lbu	a5,0(a5)
    13ee:	00e78b63          	beq	a5,a4,1404 <isTerm+0x36>
    13f2:	02a00713          	li	a4,42
    13f6:	02e78563          	beq	a5,a4,1420 <isTerm+0x52>
    13fa:	d481ac23          	sw	s0,-680(gp) # 20000590 <evalNumber>
    13fe:	d5818793          	addi	a5,gp,-680 # 20000590 <evalNumber>
    1402:	a0a9                	j	144c <isTerm+0x7e>
    1404:	4705                	li	a4,1
    1406:	c03a                	sw	a4,0(sp)
    1408:	33c5                	jal	11e8 <RemoveNextWhtSP>
    140a:	3f5d                	jal	13c0 <isFactor>
    140c:	c905                	beqz	a0,143c <isTerm+0x6e>
    140e:	4702                	lw	a4,0(sp)
    1410:	410c                	lw	a1,0(a0)
    1412:	c30d                	beqz	a4,1434 <isTerm+0x66>
    1414:	c981                	beqz	a1,1424 <isTerm+0x56>
    1416:	8522                	mv	a0,s0
    1418:	cb5fe0ef          	jal	ra,cc <__divsi3>
    141c:	842a                	mv	s0,a0
    141e:	a809                	j	1430 <isTerm+0x62>
    1420:	4701                	li	a4,0
    1422:	b7d5                	j	1406 <isTerm+0x38>
    1424:	00003537          	lui	a0,0x3
    1428:	79050513          	addi	a0,a0,1936 # 3790 <KeyWordTab+0x288>
    142c:	cdeff0ef          	jal	ra,90a <WriteErrMsg>
    1430:	3359                	jal	11b6 <RemoveWhtSP>
    1432:	bf45                	j	13e2 <isTerm+0x14>
    1434:	8522                	mv	a0,s0
    1436:	c7ffe0ef          	jal	ra,b4 <__mulsi3>
    143a:	b7cd                	j	141c <isTerm+0x4e>
    143c:	c02a                	sw	a0,0(sp)
    143e:	00003537          	lui	a0,0x3
    1442:	79c50513          	addi	a0,a0,1948 # 379c <KeyWordTab+0x294>
    1446:	c36ff0ef          	jal	ra,87c <WriteTextln>
    144a:	4782                	lw	a5,0(sp)
    144c:	853e                	mv	a0,a5
    144e:	0111                	addi	sp,sp,4
    1450:	c5bfe06f          	j	aa <__riscv_restore_0>

00001454 <isExpression>:
    1454:	c4dfe2ef          	jal	t0,a0 <__riscv_save_0>
    1458:	d5c1c783          	lbu	a5,-676(gp) # 20000594 <linePointer>
    145c:	d6018713          	addi	a4,gp,-672 # 20000598 <line_buffer>
    1460:	973e                	add	a4,a4,a5
    1462:	2310                	lbu	a2,0(a4)
    1464:	1161                	addi	sp,sp,-8
    1466:	d5c18593          	addi	a1,gp,-676 # 20000594 <linePointer>
    146a:	d6018693          	addi	a3,gp,-672 # 20000598 <line_buffer>
    146e:	02d00713          	li	a4,45
    1472:	c02e                	sw	a1,0(sp)
    1474:	c236                	sw	a3,4(sp)
    1476:	4481                	li	s1,0
    1478:	00e61663          	bne	a2,a4,1484 <isExpression+0x30>
    147c:	0785                	addi	a5,a5,1
    147e:	a19c                	sb	a5,0(a1)
    1480:	4485                	li	s1,1
    1482:	3b15                	jal	11b6 <RemoveWhtSP>
    1484:	4782                	lw	a5,0(sp)
    1486:	4712                	lw	a4,4(sp)
    1488:	239c                	lbu	a5,0(a5)
    148a:	973e                	add	a4,a4,a5
    148c:	2314                	lbu	a3,0(a4)
    148e:	02b00713          	li	a4,43
    1492:	00e69663          	bne	a3,a4,149e <isExpression+0x4a>
    1496:	4702                	lw	a4,0(sp)
    1498:	0785                	addi	a5,a5,1
    149a:	a31c                	sb	a5,0(a4)
    149c:	3b29                	jal	11b6 <RemoveWhtSP>
    149e:	3f05                	jal	13ce <isTerm>
    14a0:	87aa                	mv	a5,a0
    14a2:	cd21                	beqz	a0,14fa <isExpression+0xa6>
    14a4:	4100                	lw	s0,0(a0)
    14a6:	c099                	beqz	s1,14ac <isExpression+0x58>
    14a8:	40800433          	neg	s0,s0
    14ac:	3329                	jal	11b6 <RemoveWhtSP>
    14ae:	4782                	lw	a5,0(sp)
    14b0:	4712                	lw	a4,4(sp)
    14b2:	02d00693          	li	a3,45
    14b6:	239c                	lbu	a5,0(a5)
    14b8:	97ba                	add	a5,a5,a4
    14ba:	239c                	lbu	a5,0(a5)
    14bc:	00d78b63          	beq	a5,a3,14d2 <isExpression+0x7e>
    14c0:	02b00693          	li	a3,43
    14c4:	00d78f63          	beq	a5,a3,14e2 <isExpression+0x8e>
    14c8:	d481ac23          	sw	s0,-680(gp) # 20000590 <evalNumber>
    14cc:	d5818793          	addi	a5,gp,-680 # 20000590 <evalNumber>
    14d0:	a02d                	j	14fa <isExpression+0xa6>
    14d2:	4485                	li	s1,1
    14d4:	3b11                	jal	11e8 <RemoveNextWhtSP>
    14d6:	3de5                	jal	13ce <isTerm>
    14d8:	c909                	beqz	a0,14ea <isExpression+0x96>
    14da:	411c                	lw	a5,0(a0)
    14dc:	c489                	beqz	s1,14e6 <isExpression+0x92>
    14de:	8c1d                	sub	s0,s0,a5
    14e0:	b7f1                	j	14ac <isExpression+0x58>
    14e2:	4481                	li	s1,0
    14e4:	bfc5                	j	14d4 <isExpression+0x80>
    14e6:	943e                	add	s0,s0,a5
    14e8:	b7d1                	j	14ac <isExpression+0x58>
    14ea:	c02a                	sw	a0,0(sp)
    14ec:	00003537          	lui	a0,0x3
    14f0:	79c50513          	addi	a0,a0,1948 # 379c <KeyWordTab+0x294>
    14f4:	b88ff0ef          	jal	ra,87c <WriteTextln>
    14f8:	4782                	lw	a5,0(sp)
    14fa:	853e                	mv	a0,a5
    14fc:	0121                	addi	sp,sp,8
    14fe:	badfe06f          	j	aa <__riscv_restore_0>

00001502 <Statement>:
    1502:	b9ffe2ef          	jal	t0,a0 <__riscv_save_0>
    1506:	d5c18793          	addi	a5,gp,-676 # 20000594 <linePointer>
    150a:	239c                	lbu	a5,0(a5)
    150c:	d6018493          	addi	s1,gp,-672 # 20000598 <line_buffer>
    1510:	97a6                	add	a5,a5,s1
    1512:	239c                	lbu	a5,0(a5)
    1514:	fd810113          	addi	sp,sp,-40
    1518:	d6018693          	addi	a3,gp,-672 # 20000598 <line_buffer>
    151c:	0ae00713          	li	a4,174
    1520:	c036                	sw	a3,0(sp)
    1522:	d5c18413          	addi	s0,gp,-676 # 20000594 <linePointer>
    1526:	6ae78a63          	beq	a5,a4,1bda <Statement+0x6d8>
    152a:	0cf76e63          	bltu	a4,a5,1606 <Statement+0x104>
    152e:	0a700713          	li	a4,167
    1532:	36e78f63          	beq	a5,a4,18b0 <Statement+0x3ae>
    1536:	06f76f63          	bltu	a4,a5,15b4 <Statement+0xb2>
    153a:	0a300713          	li	a4,163
    153e:	38e78d63          	beq	a5,a4,18d8 <Statement+0x3d6>
    1542:	00f76f63          	bltu	a4,a5,1560 <Statement+0x5e>
    1546:	0a000713          	li	a4,160
    154a:	3ae78363          	beq	a5,a4,18f0 <Statement+0x3ee>
    154e:	0a100713          	li	a4,161
    1552:	52e78063          	beq	a5,a4,1a72 <Statement+0x570>
    1556:	00003537          	lui	a0,0x3
    155a:	77c50513          	addi	a0,a0,1916 # 377c <KeyWordTab+0x274>
    155e:	a63d                	j	188c <Statement+0x38a>
    1560:	0a500713          	li	a4,165
    1564:	28e78d63          	beq	a5,a4,17fe <Statement+0x2fc>
    1568:	44f77263          	bgeu	a4,a5,19ac <Statement+0x4aa>
    156c:	d551c783          	lbu	a5,-683(gp) # 2000058d <currentLine>
    1570:	d5518413          	addi	s0,gp,-683 # 2000058d <currentLine>
    1574:	0785                	addi	a5,a5,1
    1576:	0ff7f793          	andi	a5,a5,255
    157a:	01879713          	slli	a4,a5,0x18
    157e:	8761                	srai	a4,a4,0x18
    1580:	32074363          	bltz	a4,18a6 <Statement+0x3a4>
    1584:	d8c1c703          	lbu	a4,-628(gp) # 200005c4 <stackPointer>
    1588:	459d                	li	a1,7
    158a:	d8c18613          	addi	a2,gp,-628 # 200005c4 <stackPointer>
    158e:	1ee5e763          	bltu	a1,a4,177c <Statement+0x27a>
    1592:	d9018693          	addi	a3,gp,-624 # 200005c8 <stack_buffer>
    1596:	96ba                	add	a3,a3,a4
    1598:	0705                	addi	a4,a4,1
    159a:	a29c                	sb	a5,0(a3)
    159c:	a218                	sb	a4,0(a2)
    159e:	31a9                	jal	11e8 <RemoveNextWhtSP>
    15a0:	3d55                	jal	1454 <isExpression>
    15a2:	2e050163          	beqz	a0,1884 <Statement+0x382>
    15a6:	411c                	lw	a5,0(a0)
    15a8:	07f00713          	li	a4,127
    15ac:	2ef76d63          	bltu	a4,a5,18a6 <Statement+0x3a4>
    15b0:	a01c                	sb	a5,0(s0)
    15b2:	a2e9                	j	177c <Statement+0x27a>
    15b4:	0aa00713          	li	a4,170
    15b8:	22e78663          	beq	a5,a4,17e4 <Statement+0x2e2>
    15bc:	02f76363          	bltu	a4,a5,15e2 <Statement+0xe0>
    15c0:	0a800713          	li	a4,168
    15c4:	1ee78b63          	beq	a5,a4,17ba <Statement+0x2b8>
    15c8:	0a900713          	li	a4,169
    15cc:	f8e795e3          	bne	a5,a4,1556 <Statement+0x54>
    15d0:	3921                	jal	11e8 <RemoveNextWhtSP>
    15d2:	3989                	jal	1224 <isNumberNext>
    15d4:	1a050863          	beqz	a0,1784 <Statement+0x282>
    15d8:	4108                	lw	a0,0(a0)
    15da:	07f57513          	andi	a0,a0,127
    15de:	3e8d                	jal	1150 <PrintBasLine>
    15e0:	aa71                	j	177c <Statement+0x27a>
    15e2:	0ac00713          	li	a4,172
    15e6:	5ee78063          	beq	a5,a4,1bc6 <Statement+0x6c4>
    15ea:	20f77563          	bgeu	a4,a5,17f4 <Statement+0x2f2>
    15ee:	3eed                	jal	11e8 <RemoveNextWhtSP>
    15f0:	3595                	jal	1454 <isExpression>
    15f2:	28050963          	beqz	a0,1884 <Statement+0x382>
    15f6:	411c                	lw	a5,0(a0)
    15f8:	31f00713          	li	a4,799
    15fc:	18f76063          	bltu	a4,a5,177c <Statement+0x27a>
    1600:	d4f19b23          	sh	a5,-682(gp) # 2000058e <dispPointer>
    1604:	aaa5                	j	177c <Statement+0x27a>
    1606:	0b500713          	li	a4,181
    160a:	16e78963          	beq	a5,a4,177c <Statement+0x27a>
    160e:	0cf76b63          	bltu	a4,a5,16e4 <Statement+0x1e2>
    1612:	0b100713          	li	a4,177
    1616:	78e78063          	beq	a5,a4,1d96 <Statement+0x894>
    161a:	02f76363          	bltu	a4,a5,1640 <Statement+0x13e>
    161e:	0af00713          	li	a4,175
    1622:	6ee78563          	beq	a5,a4,1d0c <Statement+0x80a>
    1626:	0b000713          	li	a4,176
    162a:	f2e796e3          	bne	a5,a4,1556 <Statement+0x54>
    162e:	3e6d                	jal	11e8 <RemoveNextWhtSP>
    1630:	3965                	jal	12e8 <isVariableNext>
    1632:	842a                	mv	s0,a0
    1634:	26050463          	beqz	a0,189c <Statement+0x39a>
    1638:	c37fe0ef          	jal	ra,26e <kbdRead>
    163c:	c008                	sw	a0,0(s0)
    163e:	aa3d                	j	177c <Statement+0x27a>
    1640:	0b300713          	li	a4,179
    1644:	7ce78763          	beq	a5,a4,1e12 <Statement+0x910>
    1648:	76f77b63          	bgeu	a4,a5,1dbe <Statement+0x8bc>
    164c:	3e71                	jal	11e8 <RemoveNextWhtSP>
    164e:	3519                	jal	1454 <isExpression>
    1650:	7e050963          	beqz	a0,1e42 <Statement+0x940>
    1654:	4100                	lw	s0,0(a0)
    1656:	b61ff0ef          	jal	ra,11b6 <RemoveWhtSP>
    165a:	d5c18793          	addi	a5,gp,-676 # 20000594 <linePointer>
    165e:	239c                	lbu	a5,0(a5)
    1660:	94be                	add	s1,s1,a5
    1662:	2098                	lbu	a4,0(s1)
    1664:	02c00793          	li	a5,44
    1668:	62f71863          	bne	a4,a5,1c98 <Statement+0x796>
    166c:	3eb5                	jal	11e8 <RemoveNextWhtSP>
    166e:	33dd                	jal	1454 <isExpression>
    1670:	84aa                	mv	s1,a0
    1672:	7c050363          	beqz	a0,1e38 <Statement+0x936>
    1676:	6785                	lui	a5,0x1
    1678:	f9c40693          	addi	a3,s0,-100
    167c:	f3c78793          	addi	a5,a5,-196 # f3c <I2C_write_address+0x8>
    1680:	0ed7ee63          	bltu	a5,a3,177c <Statement+0x27a>
    1684:	4114                	lw	a3,0(a0)
    1686:	67e1                	lui	a5,0x18
    1688:	68c78793          	addi	a5,a5,1676 # 1868c <_data_lma+0x14e64>
    168c:	16b1                	addi	a3,a3,-20
    168e:	0ed7e763          	bltu	a5,a3,177c <Statement+0x27a>
    1692:	0007a537          	lui	a0,0x7a
    1696:	85a2                	mv	a1,s0
    1698:	12050513          	addi	a0,a0,288 # 7a120 <_data_lma+0x768f8>
    169c:	a31fe0ef          	jal	ra,cc <__divsi3>
    16a0:	842a                	mv	s0,a0
    16a2:	4701                	li	a4,0
    16a4:	409c                	lw	a5,0(s1)
    16a6:	85a2                	mv	a1,s0
    16a8:	c03a                	sw	a4,0(sp)
    16aa:	00579513          	slli	a0,a5,0x5
    16ae:	8d1d                	sub	a0,a0,a5
    16b0:	050a                	slli	a0,a0,0x2
    16b2:	953e                	add	a0,a0,a5
    16b4:	050a                	slli	a0,a0,0x2
    16b6:	a17fe0ef          	jal	ra,cc <__divsi3>
    16ba:	4702                	lw	a4,0(sp)
    16bc:	0ca75063          	bge	a4,a0,177c <Statement+0x27a>
    16c0:	c03a                	sw	a4,0(sp)
    16c2:	400117b7          	lui	a5,0x40011
    16c6:	4685                	li	a3,1
    16c8:	cb94                	sw	a3,16(a5)
    16ca:	8522                	mv	a0,s0
    16cc:	7b6010ef          	jal	ra,2e82 <Delay_Us>
    16d0:	66c1                	lui	a3,0x10
    16d2:	400117b7          	lui	a5,0x40011
    16d6:	cb94                	sw	a3,16(a5)
    16d8:	8522                	mv	a0,s0
    16da:	7a8010ef          	jal	ra,2e82 <Delay_Us>
    16de:	4702                	lw	a4,0(sp)
    16e0:	0705                	addi	a4,a4,1
    16e2:	b7c9                	j	16a4 <Statement+0x1a2>
    16e4:	0b900713          	li	a4,185
    16e8:	26e785e3          	beq	a5,a4,2152 <Statement+0xc50>
    16ec:	06f76e63          	bltu	a4,a5,1768 <Statement+0x266>
    16f0:	0b700713          	li	a4,183
    16f4:	18e783e3          	beq	a5,a4,207a <Statement+0xb78>
    16f8:	14f779e3          	bgeu	a4,a5,204a <Statement+0xb48>
    16fc:	aedff0ef          	jal	ra,11e8 <RemoveNextWhtSP>
    1700:	3b91                	jal	1454 <isExpression>
    1702:	84aa                	mv	s1,a0
    1704:	200503e3          	beqz	a0,210a <Statement+0xc08>
    1708:	aafff0ef          	jal	ra,11b6 <RemoveWhtSP>
    170c:	4702                	lw	a4,0(sp)
    170e:	201c                	lbu	a5,0(s0)
    1710:	97ba                	add	a5,a5,a4
    1712:	2398                	lbu	a4,0(a5)
    1714:	02c00793          	li	a5,44
    1718:	58f71063          	bne	a4,a5,1c98 <Statement+0x796>
    171c:	acdff0ef          	jal	ra,11e8 <RemoveNextWhtSP>
    1720:	47c1                	li	a5,16
    1722:	d23e                	sw	a5,36(sp)
    1724:	4785                	li	a5,1
    1726:	4702                	lw	a4,0(sp)
    1728:	d03e                	sw	a5,32(sp)
    172a:	201c                	lbu	a5,0(s0)
    172c:	ce02                	sw	zero,28(sp)
    172e:	97ba                	add	a5,a5,a4
    1730:	239c                	lbu	a5,0(a5)
    1732:	03100713          	li	a4,49
    1736:	1ee790e3          	bne	a5,a4,2116 <Statement+0xc14>
    173a:	04000793          	li	a5,64
    173e:	86fc                	sh	a5,28(sp)
    1740:	400117b7          	lui	a5,0x40011
    1744:	086c                	addi	a1,sp,28
    1746:	40078513          	addi	a0,a5,1024 # 40011400 <__global_pointer$+0x20010bc8>
    174a:	1ae010ef          	jal	ra,28f8 <GPIO_Init>
    174e:	4098                	lw	a4,0(s1)
    1750:	400117b7          	lui	a5,0x40011
    1754:	04000593          	li	a1,64
    1758:	40078513          	addi	a0,a5,1024 # 40011400 <__global_pointer$+0x20010bc8>
    175c:	1e0702e3          	beqz	a4,2140 <Statement+0xc3e>
    1760:	21e010ef          	jal	ra,297e <GPIO_SetBits>
    1764:	1750006f          	j	20d8 <Statement+0xbd6>
    1768:	0bb00713          	li	a4,187
    176c:	6ee78063          	beq	a5,a4,1e4c <Statement+0x94a>
    1770:	2ae7eee3          	bltu	a5,a4,222c <Statement+0xd2a>
    1774:	0ff00713          	li	a4,255
    1778:	dce79fe3          	bne	a5,a4,1556 <Statement+0x54>
    177c:	02810113          	addi	sp,sp,40
    1780:	92bfe06f          	j	aa <__riscv_restore_0>
    1784:	4401                	li	s0,0
    1786:	4781                	li	a5,0
    1788:	000034b7          	lui	s1,0x3
    178c:	8522                	mv	a0,s0
    178e:	c03e                	sw	a5,0(sp)
    1790:	9c1ff0ef          	jal	ra,1150 <PrintBasLine>
    1794:	4782                	lw	a5,0(sp)
    1796:	c111                	beqz	a0,179a <Statement+0x298>
    1798:	0785                	addi	a5,a5,1
    179a:	473d                	li	a4,15
    179c:	00e79963          	bne	a5,a4,17ae <Statement+0x2ac>
    17a0:	5e848513          	addi	a0,s1,1512 # 35e8 <KeyWordTab+0xe0>
    17a4:	8d8ff0ef          	jal	ra,87c <WriteTextln>
    17a8:	ea5fe0ef          	jal	ra,64c <GetKeyChar>
    17ac:	4781                	li	a5,0
    17ae:	0405                	addi	s0,s0,1
    17b0:	08000713          	li	a4,128
    17b4:	fce41ce3          	bne	s0,a4,178c <Statement+0x28a>
    17b8:	b7d1                	j	177c <Statement+0x27a>
    17ba:	57fd                	li	a5,-1
    17bc:	a09c                	sb	a5,0(s1)
    17be:	4481                	li	s1,0
    17c0:	8526                	mv	a0,s1
    17c2:	00040023          	sb	zero,0(s0)
    17c6:	82dff0ef          	jal	ra,ff2 <I2C_write_line>
    17ca:	4529                	li	a0,10
    17cc:	6f0010ef          	jal	ra,2ebc <Delay_Ms>
    17d0:	0485                	addi	s1,s1,1
    17d2:	0ff4f493          	andi	s1,s1,255
    17d6:	08000793          	li	a5,128
    17da:	fef493e3          	bne	s1,a5,17c0 <Statement+0x2be>
    17de:	82018aa3          	sb	zero,-1995(gp) # 2000006d <RunMode>
    17e2:	bf69                	j	177c <Statement+0x27a>
    17e4:	4705                	li	a4,1
    17e6:	82e18aa3          	sb	a4,-1995(gp) # 2000006d <RunMode>
    17ea:	d4018aa3          	sb	zero,-683(gp) # 2000058d <currentLine>
    17ee:	d8018623          	sb	zero,-628(gp) # 200005c4 <stackPointer>
    17f2:	b769                	j	177c <Statement+0x27a>
    17f4:	82018aa3          	sb	zero,-1995(gp) # 2000006d <RunMode>
    17f8:	d4018aa3          	sb	zero,-683(gp) # 2000058d <currentLine>
    17fc:	b741                	j	177c <Statement+0x27a>
    17fe:	9ebff0ef          	jal	ra,11e8 <RemoveNextWhtSP>
    1802:	201c                	lbu	a5,0(s0)
    1804:	4702                	lw	a4,0(sp)
    1806:	97ba                	add	a5,a5,a4
    1808:	239c                	lbu	a5,0(a5)
    180a:	c23e                	sw	a5,4(sp)
    180c:	addff0ef          	jal	ra,12e8 <isVariableNext>
    1810:	84aa                	mv	s1,a0
    1812:	c549                	beqz	a0,189c <Statement+0x39a>
    1814:	9a3ff0ef          	jal	ra,11b6 <RemoveWhtSP>
    1818:	4702                	lw	a4,0(sp)
    181a:	201c                	lbu	a5,0(s0)
    181c:	97ba                	add	a5,a5,a4
    181e:	2398                	lbu	a4,0(a5)
    1820:	03d00793          	li	a5,61
    1824:	06f71763          	bne	a4,a5,1892 <Statement+0x390>
    1828:	9c1ff0ef          	jal	ra,11e8 <RemoveNextWhtSP>
    182c:	3125                	jal	1454 <isExpression>
    182e:	c939                	beqz	a0,1884 <Statement+0x382>
    1830:	411c                	lw	a5,0(a0)
    1832:	4712                	lw	a4,4(sp)
    1834:	c09c                	sw	a5,0(s1)
    1836:	04000793          	li	a5,64
    183a:	f4f711e3          	bne	a4,a5,177c <Statement+0x27a>
    183e:	979ff0ef          	jal	ra,11b6 <RemoveWhtSP>
    1842:	4702                	lw	a4,0(sp)
    1844:	201c                	lbu	a5,0(s0)
    1846:	97ba                	add	a5,a5,a4
    1848:	2398                	lbu	a4,0(a5)
    184a:	02c00793          	li	a5,44
    184e:	00f71463          	bne	a4,a5,1856 <Statement+0x354>
    1852:	997ff0ef          	jal	ra,11e8 <RemoveNextWhtSP>
    1856:	0491                	addi	s1,s1,4
    1858:	9cdff0ef          	jal	ra,1224 <isNumberNext>
    185c:	c909                	beqz	a0,186e <Statement+0x36c>
    185e:	b5818793          	addi	a5,gp,-1192 # 20000390 <arrayVariable>
    1862:	64078793          	addi	a5,a5,1600
    1866:	00f4f463          	bgeu	s1,a5,186e <Statement+0x36c>
    186a:	411c                	lw	a5,0(a0)
    186c:	c09c                	sw	a5,0(s1)
    186e:	949ff0ef          	jal	ra,11b6 <RemoveWhtSP>
    1872:	4702                	lw	a4,0(sp)
    1874:	201c                	lbu	a5,0(s0)
    1876:	97ba                	add	a5,a5,a4
    1878:	2398                	lbu	a4,0(a5)
    187a:	02c00793          	li	a5,44
    187e:	fcf702e3          	beq	a4,a5,1842 <Statement+0x340>
    1882:	bded                	j	177c <Statement+0x27a>
    1884:	00003537          	lui	a0,0x3
    1888:	5fc50513          	addi	a0,a0,1532 # 35fc <KeyWordTab+0xf4>
    188c:	87eff0ef          	jal	ra,90a <WriteErrMsg>
    1890:	b5f5                	j	177c <Statement+0x27a>
    1892:	00003537          	lui	a0,0x3
    1896:	60c50513          	addi	a0,a0,1548 # 360c <KeyWordTab+0x104>
    189a:	bfcd                	j	188c <Statement+0x38a>
    189c:	00003537          	lui	a0,0x3
    18a0:	61850513          	addi	a0,a0,1560 # 3618 <KeyWordTab+0x110>
    18a4:	b7e5                	j	188c <Statement+0x38a>
    18a6:	00003537          	lui	a0,0x3
    18aa:	62c50513          	addi	a0,a0,1580 # 362c <KeyWordTab+0x124>
    18ae:	bff9                	j	188c <Statement+0x38a>
    18b0:	d8c18713          	addi	a4,gp,-628 # 200005c4 <stackPointer>
    18b4:	231c                	lbu	a5,0(a4)
    18b6:	cf81                	beqz	a5,18ce <Statement+0x3cc>
    18b8:	17fd                	addi	a5,a5,-1
    18ba:	0ff7f793          	andi	a5,a5,255
    18be:	a31c                	sb	a5,0(a4)
    18c0:	d9018713          	addi	a4,gp,-624 # 200005c8 <stack_buffer>
    18c4:	97ba                	add	a5,a5,a4
    18c6:	2398                	lbu	a4,0(a5)
    18c8:	d4e18aa3          	sb	a4,-683(gp) # 2000058d <currentLine>
    18cc:	bd45                	j	177c <Statement+0x27a>
    18ce:	00003537          	lui	a0,0x3
    18d2:	64050513          	addi	a0,a0,1600 # 3640 <KeyWordTab+0x138>
    18d6:	bf5d                	j	188c <Statement+0x38a>
    18d8:	911ff0ef          	jal	ra,11e8 <RemoveNextWhtSP>
    18dc:	3ea5                	jal	1454 <isExpression>
    18de:	d15d                	beqz	a0,1884 <Statement+0x382>
    18e0:	411c                	lw	a5,0(a0)
    18e2:	07f00713          	li	a4,127
    18e6:	fcf760e3          	bltu	a4,a5,18a6 <Statement+0x3a4>
    18ea:	d4f18aa3          	sb	a5,-683(gp) # 2000058d <currentLine>
    18ee:	b579                	j	177c <Statement+0x27a>
    18f0:	8f9ff0ef          	jal	ra,11e8 <RemoveNextWhtSP>
    18f4:	02c00493          	li	s1,44
    18f8:	201c                	lbu	a5,0(s0)
    18fa:	4702                	lw	a4,0(sp)
    18fc:	97ba                	add	a5,a5,a4
    18fe:	239c                	lbu	a5,0(a5)
    1900:	00979463          	bne	a5,s1,1908 <Statement+0x406>
    1904:	8e5ff0ef          	jal	ra,11e8 <RemoveNextWhtSP>
    1908:	b4dff0ef          	jal	ra,1454 <isExpression>
    190c:	cd09                	beqz	a0,1926 <Statement+0x424>
    190e:	4108                	lw	a0,0(a0)
    1910:	f8bfe0ef          	jal	ra,89a <WriteNum>
    1914:	8a3ff0ef          	jal	ra,11b6 <RemoveWhtSP>
    1918:	201c                	lbu	a5,0(s0)
    191a:	4702                	lw	a4,0(sp)
    191c:	97ba                	add	a5,a5,a4
    191e:	239c                	lbu	a5,0(a5)
    1920:	fc978ce3          	beq	a5,s1,18f8 <Statement+0x3f6>
    1924:	bda1                	j	177c <Statement+0x27a>
    1926:	201c                	lbu	a5,0(s0)
    1928:	4702                	lw	a4,0(sp)
    192a:	973e                	add	a4,a4,a5
    192c:	2314                	lbu	a3,0(a4)
    192e:	02200713          	li	a4,34
    1932:	fee691e3          	bne	a3,a4,1914 <Statement+0x412>
    1936:	0785                	addi	a5,a5,1
    1938:	a01c                	sb	a5,0(s0)
    193a:	201c                	lbu	a5,0(s0)
    193c:	4702                	lw	a4,0(sp)
    193e:	973e                	add	a4,a4,a5
    1940:	2308                	lbu	a0,0(a4)
    1942:	02200713          	li	a4,34
    1946:	1ae50ce3          	beq	a0,a4,22fe <Statement+0xdfc>
    194a:	0ff00713          	li	a4,255
    194e:	fce503e3          	beq	a0,a4,1914 <Statement+0x412>
    1952:	477d                	li	a4,31
    1954:	fcf760e3          	bltu	a4,a5,1914 <Statement+0x412>
    1958:	05c00713          	li	a4,92
    195c:	04e51463          	bne	a0,a4,19a4 <Statement+0x4a2>
    1960:	4702                	lw	a4,0(sp)
    1962:	0785                	addi	a5,a5,1
    1964:	0ff7f793          	andi	a5,a5,255
    1968:	a01c                	sb	a5,0(s0)
    196a:	97ba                	add	a5,a5,a4
    196c:	2398                	lbu	a4,0(a5)
    196e:	06e00793          	li	a5,110
    1972:	00f71563          	bne	a4,a5,197c <Statement+0x47a>
    1976:	4529                	li	a0,10
    1978:	d2ffe0ef          	jal	ra,6a6 <WriteChar>
    197c:	4702                	lw	a4,0(sp)
    197e:	201c                	lbu	a5,0(s0)
    1980:	97ba                	add	a5,a5,a4
    1982:	2398                	lbu	a4,0(a5)
    1984:	07400793          	li	a5,116
    1988:	00f71563          	bne	a4,a5,1992 <Statement+0x490>
    198c:	4525                	li	a0,9
    198e:	d19fe0ef          	jal	ra,6a6 <WriteChar>
    1992:	4702                	lw	a4,0(sp)
    1994:	201c                	lbu	a5,0(s0)
    1996:	97ba                	add	a5,a5,a4
    1998:	2398                	lbu	a4,0(a5)
    199a:	06600793          	li	a5,102
    199e:	00f71563          	bne	a4,a5,19a8 <Statement+0x4a6>
    19a2:	4531                	li	a0,12
    19a4:	d03fe0ef          	jal	ra,6a6 <WriteChar>
    19a8:	201c                	lbu	a5,0(s0)
    19aa:	b771                	j	1936 <Statement+0x434>
    19ac:	83dff0ef          	jal	ra,11e8 <RemoveNextWhtSP>
    19b0:	4702                	lw	a4,0(sp)
    19b2:	201c                	lbu	a5,0(s0)
    19b4:	97ba                	add	a5,a5,a4
    19b6:	2398                	lbu	a4,0(a5)
    19b8:	02c00793          	li	a5,44
    19bc:	00f71463          	bne	a4,a5,19c4 <Statement+0x4c2>
    19c0:	829ff0ef          	jal	ra,11e8 <RemoveNextWhtSP>
    19c4:	2004                	lbu	s1,0(s0)
    19c6:	923ff0ef          	jal	ra,12e8 <isVariableNext>
    19ca:	c541                	beqz	a0,1a52 <Statement+0x550>
    19cc:	000037b7          	lui	a5,0x3
    19d0:	c22a                	sw	a0,4(sp)
    19d2:	64c78513          	addi	a0,a5,1612 # 364c <KeyWordTab+0x144>
    19d6:	e8dfe0ef          	jal	ra,862 <WriteText>
    19da:	4782                	lw	a5,0(sp)
    19dc:	94be                	add	s1,s1,a5
    19de:	2088                	lbu	a0,0(s1)
    19e0:	cc7fe0ef          	jal	ra,6a6 <WriteChar>
    19e4:	00003537          	lui	a0,0x3
    19e8:	65450513          	addi	a0,a0,1620 # 3654 <KeyWordTab+0x14c>
    19ec:	e91fe0ef          	jal	ra,87c <WriteTextln>
    19f0:	4712                	lw	a4,4(sp)
    19f2:	4605                	li	a2,1
    19f4:	4585                	li	a1,1
    19f6:	00072023          	sw	zero,0(a4)
    19fa:	c63a                	sw	a4,12(sp)
    19fc:	c432                	sw	a2,8(sp)
    19fe:	c22e                	sw	a1,4(sp)
    1a00:	c4dfe0ef          	jal	ra,64c <GetKeyChar>
    1a04:	84aa                	mv	s1,a0
    1a06:	ca1fe0ef          	jal	ra,6a6 <WriteChar>
    1a0a:	4622                	lw	a2,8(sp)
    1a0c:	4592                	lw	a1,4(sp)
    1a0e:	4732                	lw	a4,12(sp)
    1a10:	46a5                	li	a3,9
    1a12:	c609                	beqz	a2,1a1c <Statement+0x51a>
    1a14:	02d00793          	li	a5,45
    1a18:	04f48863          	beq	s1,a5,1a68 <Statement+0x566>
    1a1c:	fd048793          	addi	a5,s1,-48
    1a20:	0ff7f793          	andi	a5,a5,255
    1a24:	00f6eb63          	bltu	a3,a5,1a3a <Statement+0x538>
    1a28:	4308                	lw	a0,0(a4)
    1a2a:	00251793          	slli	a5,a0,0x2
    1a2e:	97aa                	add	a5,a5,a0
    1a30:	0786                	slli	a5,a5,0x1
    1a32:	00f4f513          	andi	a0,s1,15
    1a36:	97aa                	add	a5,a5,a0
    1a38:	c31c                	sw	a5,0(a4)
    1a3a:	fd048493          	addi	s1,s1,-48
    1a3e:	0ff4f493          	andi	s1,s1,255
    1a42:	fa96fce3          	bgeu	a3,s1,19fa <Statement+0x4f8>
    1a46:	4308                	lw	a0,0(a4)
    1a48:	c23a                	sw	a4,4(sp)
    1a4a:	e6afe0ef          	jal	ra,b4 <__mulsi3>
    1a4e:	4712                	lw	a4,4(sp)
    1a50:	c308                	sw	a0,0(a4)
    1a52:	f64ff0ef          	jal	ra,11b6 <RemoveWhtSP>
    1a56:	4702                	lw	a4,0(sp)
    1a58:	201c                	lbu	a5,0(s0)
    1a5a:	97ba                	add	a5,a5,a4
    1a5c:	2398                	lbu	a4,0(a5)
    1a5e:	02c00793          	li	a5,44
    1a62:	f4f707e3          	beq	a4,a5,19b0 <Statement+0x4ae>
    1a66:	bb19                	j	177c <Statement+0x27a>
    1a68:	4601                	li	a2,0
    1a6a:	55fd                	li	a1,-1
    1a6c:	03000493          	li	s1,48
    1a70:	b7e9                	j	1a3a <Statement+0x538>
    1a72:	f76ff0ef          	jal	ra,11e8 <RemoveNextWhtSP>
    1a76:	9dfff0ef          	jal	ra,1454 <isExpression>
    1a7a:	14050163          	beqz	a0,1bbc <Statement+0x6ba>
    1a7e:	4104                	lw	s1,0(a0)
    1a80:	f36ff0ef          	jal	ra,11b6 <RemoveWhtSP>
    1a84:	2018                	lbu	a4,0(s0)
    1a86:	4782                	lw	a5,0(sp)
    1a88:	97ba                	add	a5,a5,a4
    1a8a:	2394                	lbu	a3,0(a5)
    1a8c:	03d00793          	li	a5,61
    1a90:	02f69d63          	bne	a3,a5,1aca <Statement+0x5c8>
    1a94:	0705                	addi	a4,a4,1
    1a96:	a018                	sb	a4,0(s0)
    1a98:	4785                	li	a5,1
    1a9a:	c23e                	sw	a5,4(sp)
    1a9c:	f1aff0ef          	jal	ra,11b6 <RemoveWhtSP>
    1aa0:	9b5ff0ef          	jal	ra,1454 <isExpression>
    1aa4:	10050763          	beqz	a0,1bb2 <Statement+0x6b0>
    1aa8:	4792                	lw	a5,4(sp)
    1aaa:	0e078f63          	beqz	a5,1ba8 <Statement+0x6a6>
    1aae:	17f9                	addi	a5,a5,-2
    1ab0:	0ff7f793          	andi	a5,a5,255
    1ab4:	4695                	li	a3,5
    1ab6:	4118                	lw	a4,0(a0)
    1ab8:	08f6e363          	bltu	a3,a5,1b3e <Statement+0x63c>
    1abc:	668d                	lui	a3,0x3
    1abe:	078a                	slli	a5,a5,0x2
    1ac0:	03468693          	addi	a3,a3,52 # 3034 <Delay_Ms+0x178>
    1ac4:	97b6                	add	a5,a5,a3
    1ac6:	439c                	lw	a5,0(a5)
    1ac8:	8782                	jr	a5
    1aca:	03c00613          	li	a2,60
    1ace:	02c69963          	bne	a3,a2,1b00 <Statement+0x5fe>
    1ad2:	f16ff0ef          	jal	ra,11e8 <RemoveNextWhtSP>
    1ad6:	2018                	lbu	a4,0(s0)
    1ad8:	4782                	lw	a5,0(sp)
    1ada:	97ba                	add	a5,a5,a4
    1adc:	2394                	lbu	a3,0(a5)
    1ade:	03d00793          	li	a5,61
    1ae2:	00f69663          	bne	a3,a5,1aee <Statement+0x5ec>
    1ae6:	0705                	addi	a4,a4,1
    1ae8:	a018                	sb	a4,0(s0)
    1aea:	478d                	li	a5,3
    1aec:	b77d                	j	1a9a <Statement+0x598>
    1aee:	03e00613          	li	a2,62
    1af2:	4789                	li	a5,2
    1af4:	fac693e3          	bne	a3,a2,1a9a <Statement+0x598>
    1af8:	0705                	addi	a4,a4,1
    1afa:	a018                	sb	a4,0(s0)
    1afc:	4791                	li	a5,4
    1afe:	bf71                	j	1a9a <Statement+0x598>
    1b00:	03e00793          	li	a5,62
    1b04:	02f69463          	bne	a3,a5,1b2c <Statement+0x62a>
    1b08:	ee0ff0ef          	jal	ra,11e8 <RemoveNextWhtSP>
    1b0c:	2018                	lbu	a4,0(s0)
    1b0e:	4782                	lw	a5,0(sp)
    1b10:	03c00613          	li	a2,60
    1b14:	97ba                	add	a5,a5,a4
    1b16:	2394                	lbu	a3,0(a5)
    1b18:	03d00793          	li	a5,61
    1b1c:	00f69663          	bne	a3,a5,1b28 <Statement+0x626>
    1b20:	0705                	addi	a4,a4,1
    1b22:	a018                	sb	a4,0(s0)
    1b24:	4799                	li	a5,6
    1b26:	bf95                	j	1a9a <Statement+0x598>
    1b28:	4795                	li	a5,5
    1b2a:	b7e9                	j	1af4 <Statement+0x5f2>
    1b2c:	02600613          	li	a2,38
    1b30:	4781                	li	a5,0
    1b32:	f6c694e3          	bne	a3,a2,1a9a <Statement+0x598>
    1b36:	0705                	addi	a4,a4,1
    1b38:	a018                	sb	a4,0(s0)
    1b3a:	479d                	li	a5,7
    1b3c:	bfb9                	j	1a9a <Statement+0x598>
    1b3e:	8c99                	sub	s1,s1,a4
    1b40:	0014b493          	seqz	s1,s1
    1b44:	e72ff0ef          	jal	ra,11b6 <RemoveWhtSP>
    1b48:	4702                	lw	a4,0(sp)
    1b4a:	201c                	lbu	a5,0(s0)
    1b4c:	97ba                	add	a5,a5,a4
    1b4e:	2398                	lbu	a4,0(a5)
    1b50:	0a200793          	li	a5,162
    1b54:	04f71563          	bne	a4,a5,1b9e <Statement+0x69c>
    1b58:	e90ff0ef          	jal	ra,11e8 <RemoveNextWhtSP>
    1b5c:	c49d                	beqz	s1,1b8a <Statement+0x688>
    1b5e:	3255                	jal	1502 <Statement>
    1b60:	b931                	j	177c <Statement+0x27a>
    1b62:	00e4a4b3          	slt	s1,s1,a4
    1b66:	bff9                	j	1b44 <Statement+0x642>
    1b68:	009724b3          	slt	s1,a4,s1
    1b6c:	0014c493          	xori	s1,s1,1
    1b70:	bfd1                	j	1b44 <Statement+0x642>
    1b72:	8c99                	sub	s1,s1,a4
    1b74:	009034b3          	snez	s1,s1
    1b78:	b7f1                	j	1b44 <Statement+0x642>
    1b7a:	009724b3          	slt	s1,a4,s1
    1b7e:	b7d9                	j	1b44 <Statement+0x642>
    1b80:	00e4a4b3          	slt	s1,s1,a4
    1b84:	b7e5                	j	1b6c <Statement+0x66a>
    1b86:	8cf9                	and	s1,s1,a4
    1b88:	b7f5                	j	1b74 <Statement+0x672>
    1b8a:	d5518793          	addi	a5,gp,-683 # 2000058d <currentLine>
    1b8e:	2398                	lbu	a4,0(a5)
    1b90:	07e00693          	li	a3,126
    1b94:	c4e6e5e3          	bltu	a3,a4,17de <Statement+0x2dc>
    1b98:	0705                	addi	a4,a4,1
    1b9a:	a398                	sb	a4,0(a5)
    1b9c:	b6c5                	j	177c <Statement+0x27a>
    1b9e:	00003537          	lui	a0,0x3
    1ba2:	65850513          	addi	a0,a0,1624 # 3658 <KeyWordTab+0x150>
    1ba6:	b1dd                	j	188c <Statement+0x38a>
    1ba8:	00003537          	lui	a0,0x3
    1bac:	66050513          	addi	a0,a0,1632 # 3660 <KeyWordTab+0x158>
    1bb0:	b9f1                	j	188c <Statement+0x38a>
    1bb2:	00003537          	lui	a0,0x3
    1bb6:	67050513          	addi	a0,a0,1648 # 3670 <KeyWordTab+0x168>
    1bba:	b9c9                	j	188c <Statement+0x38a>
    1bbc:	00003537          	lui	a0,0x3
    1bc0:	67c50513          	addi	a0,a0,1660 # 367c <KeyWordTab+0x174>
    1bc4:	b1e1                	j	188c <Statement+0x38a>
    1bc6:	e22ff0ef          	jal	ra,11e8 <RemoveNextWhtSP>
    1bca:	f1eff0ef          	jal	ra,12e8 <isVariableNext>
    1bce:	cc0507e3          	beqz	a0,189c <Statement+0x39a>
    1bd2:	ce81a783          	lw	a5,-792(gp) # 20000520 <basTimer>
    1bd6:	c11c                	sw	a5,0(a0)
    1bd8:	b655                	j	177c <Statement+0x27a>
    1bda:	e0eff0ef          	jal	ra,11e8 <RemoveNextWhtSP>
    1bde:	4702                	lw	a4,0(sp)
    1be0:	201c                	lbu	a5,0(s0)
    1be2:	97ba                	add	a5,a5,a4
    1be4:	239c                	lbu	a5,0(a5)
    1be6:	02e00713          	li	a4,46
    1bea:	08e78563          	beq	a5,a4,1c74 <Statement+0x772>
    1bee:	05e00713          	li	a4,94
    1bf2:	08e78363          	beq	a5,a4,1c78 <Statement+0x776>
    1bf6:	03c00713          	li	a4,60
    1bfa:	08e78263          	beq	a5,a4,1c7e <Statement+0x77c>
    1bfe:	03e00713          	li	a4,62
    1c02:	08e78163          	beq	a5,a4,1c84 <Statement+0x782>
    1c06:	07600713          	li	a4,118
    1c0a:	06e78f63          	beq	a5,a4,1c88 <Statement+0x786>
    1c0e:	07000713          	li	a4,112
    1c12:	0ee79663          	bne	a5,a4,1cfe <Statement+0x7fc>
    1c16:	3e700713          	li	a4,999
    1c1a:	c23a                	sw	a4,4(sp)
    1c1c:	dccff0ef          	jal	ra,11e8 <RemoveNextWhtSP>
    1c20:	835ff0ef          	jal	ra,1454 <isExpression>
    1c24:	c961                	beqz	a0,1cf4 <Statement+0x7f2>
    1c26:	4712                	lw	a4,4(sp)
    1c28:	3e700793          	li	a5,999
    1c2c:	4104                	lw	s1,0(a0)
    1c2e:	06f71a63          	bne	a4,a5,1ca2 <Statement+0x7a0>
    1c32:	d84ff0ef          	jal	ra,11b6 <RemoveWhtSP>
    1c36:	4702                	lw	a4,0(sp)
    1c38:	201c                	lbu	a5,0(s0)
    1c3a:	97ba                	add	a5,a5,a4
    1c3c:	2398                	lbu	a4,0(a5)
    1c3e:	02c00793          	li	a5,44
    1c42:	04f71b63          	bne	a4,a5,1c98 <Statement+0x796>
    1c46:	da2ff0ef          	jal	ra,11e8 <RemoveNextWhtSP>
    1c4a:	80bff0ef          	jal	ra,1454 <isExpression>
    1c4e:	c121                	beqz	a0,1c8e <Statement+0x78c>
    1c50:	4118                	lw	a4,0(a0)
    1c52:	31f00793          	li	a5,799
    1c56:	b2e7e3e3          	bltu	a5,a4,177c <Statement+0x27a>
    1c5a:	1481                	addi	s1,s1,-32
    1c5c:	0ff4f493          	andi	s1,s1,255
    1c60:	01849793          	slli	a5,s1,0x18
    1c64:	87e1                	srai	a5,a5,0x18
    1c66:	b007cbe3          	bltz	a5,177c <Statement+0x27a>
    1c6a:	83818793          	addi	a5,gp,-1992 # 20000070 <VideoRAM>
    1c6e:	97ba                	add	a5,a5,a4
    1c70:	a384                	sb	s1,0(a5)
    1c72:	b629                	j	177c <Statement+0x27a>
    1c74:	4701                	li	a4,0
    1c76:	b755                	j	1c1a <Statement+0x718>
    1c78:	30000713          	li	a4,768
    1c7c:	bf79                	j	1c1a <Statement+0x718>
    1c7e:	31f00713          	li	a4,799
    1c82:	bf61                	j	1c1a <Statement+0x718>
    1c84:	4705                	li	a4,1
    1c86:	bf51                	j	1c1a <Statement+0x718>
    1c88:	02000713          	li	a4,32
    1c8c:	b779                	j	1c1a <Statement+0x718>
    1c8e:	00003537          	lui	a0,0x3
    1c92:	68850513          	addi	a0,a0,1672 # 3688 <KeyWordTab+0x180>
    1c96:	bedd                	j	188c <Statement+0x38a>
    1c98:	00003537          	lui	a0,0x3
    1c9c:	69450513          	addi	a0,a0,1684 # 3694 <KeyWordTab+0x18c>
    1ca0:	b6f5                	j	188c <Statement+0x38a>
    1ca2:	1481                	addi	s1,s1,-32
    1ca4:	0ff4f493          	andi	s1,s1,255
    1ca8:	01849793          	slli	a5,s1,0x18
    1cac:	87e1                	srai	a5,a5,0x18
    1cae:	ac07c7e3          	bltz	a5,177c <Statement+0x27a>
    1cb2:	d5618593          	addi	a1,gp,-682 # 2000058e <dispPointer>
    1cb6:	2196                	lhu	a3,0(a1)
    1cb8:	83818793          	addi	a5,gp,-1992 # 20000070 <VideoRAM>
    1cbc:	97b6                	add	a5,a5,a3
    1cbe:	a384                	sb	s1,0(a5)
    1cc0:	00e687b3          	add	a5,a3,a4
    1cc4:	07c2                	slli	a5,a5,0x10
    1cc6:	4505                	li	a0,1
    1cc8:	83c1                	srli	a5,a5,0x10
    1cca:	d5618613          	addi	a2,gp,-682 # 2000058e <dispPointer>
    1cce:	00a70663          	beq	a4,a0,1cda <Statement+0x7d8>
    1cd2:	31f00513          	li	a0,799
    1cd6:	00a71863          	bne	a4,a0,1ce6 <Statement+0x7e4>
    1cda:	3e06f713          	andi	a4,a3,992
    1cde:	8bfd                	andi	a5,a5,31
    1ce0:	8fd9                	or	a5,a5,a4
    1ce2:	a21e                	sh	a5,0(a2)
    1ce4:	bc61                	j	177c <Statement+0x27a>
    1ce6:	00f56463          	bltu	a0,a5,1cee <Statement+0x7ec>
    1cea:	a19e                	sh	a5,0(a1)
    1cec:	bc41                	j	177c <Statement+0x27a>
    1cee:	ce078793          	addi	a5,a5,-800
    1cf2:	bfe5                	j	1cea <Statement+0x7e8>
    1cf4:	00003537          	lui	a0,0x3
    1cf8:	6a050513          	addi	a0,a0,1696 # 36a0 <KeyWordTab+0x198>
    1cfc:	be41                	j	188c <Statement+0x38a>
    1cfe:	f56ff0ef          	jal	ra,1454 <isExpression>
    1d02:	d96d                	beqz	a0,1cf4 <Statement+0x7f2>
    1d04:	2108                	lbu	a0,0(a0)
    1d06:	9a1fe0ef          	jal	ra,6a6 <WriteChar>
    1d0a:	bc8d                	j	177c <Statement+0x27a>
    1d0c:	cdcff0ef          	jal	ra,11e8 <RemoveNextWhtSP>
    1d10:	4702                	lw	a4,0(sp)
    1d12:	d561d483          	lhu	s1,-682(gp) # 2000058e <dispPointer>
    1d16:	201c                	lbu	a5,0(s0)
    1d18:	97ba                	add	a5,a5,a4
    1d1a:	2398                	lbu	a4,0(a5)
    1d1c:	07000793          	li	a5,112
    1d20:	02f71c63          	bne	a4,a5,1d58 <Statement+0x856>
    1d24:	cc4ff0ef          	jal	ra,11e8 <RemoveNextWhtSP>
    1d28:	f2cff0ef          	jal	ra,1454 <isExpression>
    1d2c:	c939                	beqz	a0,1d82 <Statement+0x880>
    1d2e:	4104                	lw	s1,0(a0)
    1d30:	31f00793          	li	a5,799
    1d34:	0097f463          	bgeu	a5,s1,1d3c <Statement+0x83a>
    1d38:	3e700493          	li	s1,999
    1d3c:	c7aff0ef          	jal	ra,11b6 <RemoveWhtSP>
    1d40:	4702                	lw	a4,0(sp)
    1d42:	201c                	lbu	a5,0(s0)
    1d44:	04c2                	slli	s1,s1,0x10
    1d46:	80c1                	srli	s1,s1,0x10
    1d48:	97ba                	add	a5,a5,a4
    1d4a:	2398                	lbu	a4,0(a5)
    1d4c:	02c00793          	li	a5,44
    1d50:	02f71263          	bne	a4,a5,1d74 <Statement+0x872>
    1d54:	c94ff0ef          	jal	ra,11e8 <RemoveNextWhtSP>
    1d58:	31f00793          	li	a5,799
    1d5c:	0297e863          	bltu	a5,s1,1d8c <Statement+0x88a>
    1d60:	d88ff0ef          	jal	ra,12e8 <isVariableNext>
    1d64:	c505                	beqz	a0,1d8c <Statement+0x88a>
    1d66:	83818793          	addi	a5,gp,-1992 # 20000070 <VideoRAM>
    1d6a:	94be                	add	s1,s1,a5
    1d6c:	209c                	lbu	a5,0(s1)
    1d6e:	02078793          	addi	a5,a5,32
    1d72:	b595                	j	1bd6 <Statement+0x6d4>
    1d74:	00003537          	lui	a0,0x3
    1d78:	69450513          	addi	a0,a0,1684 # 3694 <KeyWordTab+0x18c>
    1d7c:	b8ffe0ef          	jal	ra,90a <WriteErrMsg>
    1d80:	bfe1                	j	1d58 <Statement+0x856>
    1d82:	00003537          	lui	a0,0x3
    1d86:	68850513          	addi	a0,a0,1672 # 3688 <KeyWordTab+0x180>
    1d8a:	bfcd                	j	1d7c <Statement+0x87a>
    1d8c:	00003537          	lui	a0,0x3
    1d90:	6b050513          	addi	a0,a0,1712 # 36b0 <KeyWordTab+0x1a8>
    1d94:	bce5                	j	188c <Statement+0x38a>
    1d96:	c52ff0ef          	jal	ra,11e8 <RemoveNextWhtSP>
    1d9a:	ebaff0ef          	jal	ra,1454 <isExpression>
    1d9e:	d8818413          	addi	s0,gp,-632 # 200005c0 <noOfMemory>
    1da2:	c509                	beqz	a0,1dac <Statement+0x8aa>
    1da4:	411c                	lw	a5,0(a0)
    1da6:	8bbd                	andi	a5,a5,15
    1da8:	809ff06f          	j	15b0 <Statement+0xae>
    1dac:	4529                	li	a0,10
    1dae:	8f9fe0ef          	jal	ra,6a6 <WriteChar>
    1db2:	2008                	lbu	a0,0(s0)
    1db4:	893d                	andi	a0,a0,15
    1db6:	ae5fe0ef          	jal	ra,89a <WriteNum>
    1dba:	4529                	li	a0,10
    1dbc:	b7a9                	j	1d06 <Statement+0x804>
    1dbe:	c2aff0ef          	jal	ra,11e8 <RemoveNextWhtSP>
    1dc2:	201c                	lbu	a5,0(s0)
    1dc4:	06600693          	li	a3,102
    1dc8:	94be                	add	s1,s1,a5
    1dca:	2098                	lbu	a4,0(s1)
    1dcc:	d5418493          	addi	s1,gp,-684 # 2000058c <compFlags>
    1dd0:	02d71763          	bne	a4,a3,1dfe <Statement+0x8fc>
    1dd4:	2098                	lbu	a4,0(s1)
    1dd6:	01871693          	slli	a3,a4,0x18
    1dda:	86e1                	srai	a3,a3,0x18
    1ddc:	00276713          	ori	a4,a4,2
    1de0:	0206c563          	bltz	a3,1e0a <Statement+0x908>
    1de4:	4529                	li	a0,10
    1de6:	8c1fe0ef          	jal	ra,6a6 <WriteChar>
    1dea:	209c                	lbu	a5,0(s1)
    1dec:	06600513          	li	a0,102
    1df0:	8b89                	andi	a5,a5,2
    1df2:	e399                	bnez	a5,1df8 <Statement+0x8f6>
    1df4:	06800513          	li	a0,104
    1df8:	8affe0ef          	jal	ra,6a6 <WriteChar>
    1dfc:	bf7d                	j	1dba <Statement+0x8b8>
    1dfe:	06800693          	li	a3,104
    1e02:	fed711e3          	bne	a4,a3,1de4 <Statement+0x8e2>
    1e06:	2098                	lbu	a4,0(s1)
    1e08:	9b41                	andi	a4,a4,-16
    1e0a:	a098                	sb	a4,0(s1)
    1e0c:	0785                	addi	a5,a5,1
    1e0e:	fa2ff06f          	j	15b0 <Statement+0xae>
    1e12:	bd6ff0ef          	jal	ra,11e8 <RemoveNextWhtSP>
    1e16:	e3eff0ef          	jal	ra,1454 <isExpression>
    1e1a:	a60505e3          	beqz	a0,1884 <Statement+0x382>
    1e1e:	4108                	lw	a0,0(a0)
    1e20:	000f47b7          	lui	a5,0xf4
    1e24:	23f78793          	addi	a5,a5,575 # f423f <_data_lma+0xf0a17>
    1e28:	fff50713          	addi	a4,a0,-1
    1e2c:	94e7e8e3          	bltu	a5,a4,177c <Statement+0x27a>
    1e30:	08c010ef          	jal	ra,2ebc <Delay_Ms>
    1e34:	949ff06f          	j	177c <Statement+0x27a>
    1e38:	00003537          	lui	a0,0x3
    1e3c:	6bc50513          	addi	a0,a0,1724 # 36bc <KeyWordTab+0x1b4>
    1e40:	b4b1                	j	188c <Statement+0x38a>
    1e42:	00003537          	lui	a0,0x3
    1e46:	6c850513          	addi	a0,a0,1736 # 36c8 <KeyWordTab+0x1c0>
    1e4a:	b489                	j	188c <Statement+0x38a>
    1e4c:	82018aa3          	sb	zero,-1995(gp) # 2000006d <RunMode>
    1e50:	d4018aa3          	sb	zero,-683(gp) # 2000058d <currentLine>
    1e54:	b94ff0ef          	jal	ra,11e8 <RemoveNextWhtSP>
    1e58:	201c                	lbu	a5,0(s0)
    1e5a:	4702                	lw	a4,0(sp)
    1e5c:	97ba                	add	a5,a5,a4
    1e5e:	2384                	lbu	s1,0(a5)
    1e60:	07300793          	li	a5,115
    1e64:	10f49c63          	bne	s1,a5,1f7c <Statement+0xa7a>
    1e68:	b80ff0ef          	jal	ra,11e8 <RemoveNextWhtSP>
    1e6c:	bb8ff0ef          	jal	ra,1224 <isNumberNext>
    1e70:	10050063          	beqz	a0,1f70 <Statement+0xa6e>
    1e74:	4104                	lw	s1,0(a0)
    1e76:	b40ff0ef          	jal	ra,11b6 <RemoveWhtSP>
    1e7a:	4702                	lw	a4,0(sp)
    1e7c:	201c                	lbu	a5,0(s0)
    1e7e:	97ba                	add	a5,a5,a4
    1e80:	2398                	lbu	a4,0(a5)
    1e82:	02c00793          	li	a5,44
    1e86:	e0f719e3          	bne	a4,a5,1c98 <Statement+0x796>
    1e8a:	b5eff0ef          	jal	ra,11e8 <RemoveNextWhtSP>
    1e8e:	b96ff0ef          	jal	ra,1224 <isNumberNext>
    1e92:	c969                	beqz	a0,1f64 <Statement+0xa62>
    1e94:	4114                	lw	a3,0(a0)
    1e96:	c236                	sw	a3,4(sp)
    1e98:	b1eff0ef          	jal	ra,11b6 <RemoveWhtSP>
    1e9c:	4702                	lw	a4,0(sp)
    1e9e:	201c                	lbu	a5,0(s0)
    1ea0:	4692                	lw	a3,4(sp)
    1ea2:	97ba                	add	a5,a5,a4
    1ea4:	2398                	lbu	a4,0(a5)
    1ea6:	02c00793          	li	a5,44
    1eaa:	def717e3          	bne	a4,a5,1c98 <Statement+0x796>
    1eae:	c036                	sw	a3,0(sp)
    1eb0:	b38ff0ef          	jal	ra,11e8 <RemoveNextWhtSP>
    1eb4:	b70ff0ef          	jal	ra,1224 <isNumberNext>
    1eb8:	c145                	beqz	a0,1f58 <Statement+0xa56>
    1eba:	07f00713          	li	a4,127
    1ebe:	08974763          	blt	a4,s1,1f4c <Statement+0xa4a>
    1ec2:	4682                	lw	a3,0(sp)
    1ec4:	08d74463          	blt	a4,a3,1f4c <Statement+0xa4a>
    1ec8:	411c                	lw	a5,0(a0)
    1eca:	07e00613          	li	a2,126
    1ece:	fff78593          	addi	a1,a5,-1
    1ed2:	06b66d63          	bltu	a2,a1,1f4c <Statement+0xa4a>
    1ed6:	06d48b63          	beq	s1,a3,1f4c <Statement+0xa4a>
    1eda:	0496dc63          	bge	a3,s1,1f32 <Statement+0xa30>
    1ede:	00f485b3          	add	a1,s1,a5
    1ee2:	4605                	li	a2,1
    1ee4:	00b75563          	bge	a4,a1,1eee <Statement+0x9ec>
    1ee8:	08000793          	li	a5,128
    1eec:	8f85                	sub	a5,a5,s1
    1eee:	40968733          	sub	a4,a3,s1
    1ef2:	c03a                	sw	a4,0(sp)
    1ef4:	0ff4f693          	andi	a3,s1,255
    1ef8:	8536                	mv	a0,a3
    1efa:	c632                	sw	a2,12(sp)
    1efc:	c43e                	sw	a5,8(sp)
    1efe:	c236                	sw	a3,4(sp)
    1f00:	966ff0ef          	jal	ra,1066 <I2C_read_line>
    1f04:	4515                	li	a0,5
    1f06:	7b7000ef          	jal	ra,2ebc <Delay_Ms>
    1f0a:	4782                	lw	a5,0(sp)
    1f0c:	4692                	lw	a3,4(sp)
    1f0e:	00040023          	sb	zero,0(s0)
    1f12:	00f68533          	add	a0,a3,a5
    1f16:	0ff57513          	andi	a0,a0,255
    1f1a:	8d8ff0ef          	jal	ra,ff2 <I2C_write_line>
    1f1e:	4529                	li	a0,10
    1f20:	79d000ef          	jal	ra,2ebc <Delay_Ms>
    1f24:	47a2                	lw	a5,8(sp)
    1f26:	4632                	lw	a2,12(sp)
    1f28:	17fd                	addi	a5,a5,-1
    1f2a:	94b2                	add	s1,s1,a2
    1f2c:	f7e1                	bnez	a5,1ef4 <Statement+0x9f2>
    1f2e:	84fff06f          	j	177c <Statement+0x27a>
    1f32:	00f68633          	add	a2,a3,a5
    1f36:	00c75563          	bge	a4,a2,1f40 <Statement+0xa3e>
    1f3a:	08000793          	li	a5,128
    1f3e:	8f95                	sub	a5,a5,a3
    1f40:	fff78713          	addi	a4,a5,-1
    1f44:	94ba                	add	s1,s1,a4
    1f46:	96ba                	add	a3,a3,a4
    1f48:	567d                	li	a2,-1
    1f4a:	b755                	j	1eee <Statement+0x9ec>
    1f4c:	00003537          	lui	a0,0x3
    1f50:	6d450513          	addi	a0,a0,1748 # 36d4 <KeyWordTab+0x1cc>
    1f54:	939ff06f          	j	188c <Statement+0x38a>
    1f58:	00003537          	lui	a0,0x3
    1f5c:	6e050513          	addi	a0,a0,1760 # 36e0 <KeyWordTab+0x1d8>
    1f60:	92dff06f          	j	188c <Statement+0x38a>
    1f64:	00003537          	lui	a0,0x3
    1f68:	6f050513          	addi	a0,a0,1776 # 36f0 <KeyWordTab+0x1e8>
    1f6c:	921ff06f          	j	188c <Statement+0x38a>
    1f70:	00003537          	lui	a0,0x3
    1f74:	70050513          	addi	a0,a0,1792 # 3700 <KeyWordTab+0x1f8>
    1f78:	915ff06f          	j	188c <Statement+0x38a>
    1f7c:	f9a48793          	addi	a5,s1,-102
    1f80:	0fd7f793          	andi	a5,a5,253
    1f84:	efcd                	bnez	a5,203e <Statement+0xb3c>
    1f86:	a62ff0ef          	jal	ra,11e8 <RemoveNextWhtSP>
    1f8a:	d5418703          	lb	a4,-684(gp) # 2000058c <compFlags>
    1f8e:	d5418793          	addi	a5,gp,-684 # 2000058c <compFlags>
    1f92:	c03e                	sw	a5,0(sp)
    1f94:	00074c63          	bltz	a4,1fac <Statement+0xaaa>
    1f98:	06600793          	li	a5,102
    1f9c:	00f49863          	bne	s1,a5,1fac <Statement+0xaaa>
    1fa0:	00003537          	lui	a0,0x3
    1fa4:	71050513          	addi	a0,a0,1808 # 3710 <KeyWordTab+0x208>
    1fa8:	8e5ff06f          	j	188c <Statement+0x38a>
    1fac:	a78ff0ef          	jal	ra,1224 <isNumberNext>
    1fb0:	c149                	beqz	a0,2032 <Statement+0xb30>
    1fb2:	411c                	lw	a5,0(a0)
    1fb4:	4702                	lw	a4,0(sp)
    1fb6:	8bbd                	andi	a5,a5,15
    1fb8:	c63e                	sw	a5,12(sp)
    1fba:	d881c603          	lbu	a2,-632(gp) # 200005c0 <noOfMemory>
    1fbe:	d8818793          	addi	a5,gp,-632 # 200005c0 <noOfMemory>
    1fc2:	2314                	lbu	a3,0(a4)
    1fc4:	c23e                	sw	a5,4(sp)
    1fc6:	06800713          	li	a4,104
    1fca:	4789                	li	a5,2
    1fcc:	00e49363          	bne	s1,a4,1fd2 <Statement+0xad0>
    1fd0:	4781                	li	a5,0
    1fd2:	c43e                	sw	a5,8(sp)
    1fd4:	4781                	li	a5,0
    1fd6:	853e                	mv	a0,a5
    1fd8:	cc36                	sw	a3,24(sp)
    1fda:	ca32                	sw	a2,20(sp)
    1fdc:	c83e                	sw	a5,16(sp)
    1fde:	888ff0ef          	jal	ra,1066 <I2C_read_line>
    1fe2:	4515                	li	a0,5
    1fe4:	6d9000ef          	jal	ra,2ebc <Delay_Ms>
    1fe8:	4792                	lw	a5,4(sp)
    1fea:	4732                	lw	a4,12(sp)
    1fec:	00040023          	sb	zero,0(s0)
    1ff0:	a398                	sb	a4,0(a5)
    1ff2:	4722                	lw	a4,8(sp)
    1ff4:	4782                	lw	a5,0(sp)
    1ff6:	a398                	sb	a4,0(a5)
    1ff8:	47c2                	lw	a5,16(sp)
    1ffa:	853e                	mv	a0,a5
    1ffc:	ff7fe0ef          	jal	ra,ff2 <I2C_write_line>
    2000:	4529                	li	a0,10
    2002:	6bb000ef          	jal	ra,2ebc <Delay_Ms>
    2006:	4792                	lw	a5,4(sp)
    2008:	4652                	lw	a2,20(sp)
    200a:	46e2                	lw	a3,24(sp)
    200c:	08000713          	li	a4,128
    2010:	a390                	sb	a2,0(a5)
    2012:	4782                	lw	a5,0(sp)
    2014:	a394                	sb	a3,0(a5)
    2016:	47c2                	lw	a5,16(sp)
    2018:	0785                	addi	a5,a5,1
    201a:	0ff7f793          	andi	a5,a5,255
    201e:	fae79ce3          	bne	a5,a4,1fd6 <Statement+0xad4>
    2022:	00003537          	lui	a0,0x3
    2026:	71c50513          	addi	a0,a0,1820 # 371c <KeyWordTab+0x214>
    202a:	853fe0ef          	jal	ra,87c <WriteTextln>
    202e:	8526                	mv	a0,s1
    2030:	b9d9                	j	1d06 <Statement+0x804>
    2032:	00003537          	lui	a0,0x3
    2036:	72c50513          	addi	a0,a0,1836 # 372c <KeyWordTab+0x224>
    203a:	853ff06f          	j	188c <Statement+0x38a>
    203e:	00003537          	lui	a0,0x3
    2042:	73c50513          	addi	a0,a0,1852 # 373c <KeyWordTab+0x234>
    2046:	847ff06f          	j	188c <Statement+0x38a>
    204a:	99eff0ef          	jal	ra,11e8 <RemoveNextWhtSP>
    204e:	a9aff0ef          	jal	ra,12e8 <isVariableNext>
    2052:	840505e3          	beqz	a0,189c <Statement+0x39a>
    2056:	400127b7          	lui	a5,0x40012
    205a:	4087a703          	lw	a4,1032(a5) # 40012408 <__global_pointer$+0x20011bd0>
    205e:	004006b7          	lui	a3,0x400
    2062:	8f55                	or	a4,a4,a3
    2064:	40e7a423          	sw	a4,1032(a5)
    2068:	40012737          	lui	a4,0x40012
    206c:	40072783          	lw	a5,1024(a4) # 40012400 <__global_pointer$+0x20011bc8>
    2070:	8b89                	andi	a5,a5,2
    2072:	dfed                	beqz	a5,206c <Statement+0xb6a>
    2074:	44c72783          	lw	a5,1100(a4)
    2078:	beb9                	j	1bd6 <Statement+0x6d4>
    207a:	96eff0ef          	jal	ra,11e8 <RemoveNextWhtSP>
    207e:	a6aff0ef          	jal	ra,12e8 <isVariableNext>
    2082:	c02a                	sw	a0,0(sp)
    2084:	c159                	beqz	a0,210a <Statement+0xc08>
    2086:	930ff0ef          	jal	ra,11b6 <RemoveWhtSP>
    208a:	201c                	lbu	a5,0(s0)
    208c:	97a6                	add	a5,a5,s1
    208e:	2398                	lbu	a4,0(a5)
    2090:	02c00793          	li	a5,44
    2094:	c0f712e3          	bne	a4,a5,1c98 <Statement+0x796>
    2098:	950ff0ef          	jal	ra,11e8 <RemoveNextWhtSP>
    209c:	04800793          	li	a5,72
    20a0:	d23e                	sw	a5,36(sp)
    20a2:	201c                	lbu	a5,0(s0)
    20a4:	ce02                	sw	zero,28(sp)
    20a6:	d002                	sw	zero,32(sp)
    20a8:	94be                	add	s1,s1,a5
    20aa:	209c                	lbu	a5,0(s1)
    20ac:	03100713          	li	a4,49
    20b0:	02e79663          	bne	a5,a4,20dc <Statement+0xbda>
    20b4:	400114b7          	lui	s1,0x40011
    20b8:	04000793          	li	a5,64
    20bc:	086c                	addi	a1,sp,28
    20be:	40048513          	addi	a0,s1,1024 # 40011400 <__global_pointer$+0x20010bc8>
    20c2:	86fc                	sh	a5,28(sp)
    20c4:	035000ef          	jal	ra,28f8 <GPIO_Init>
    20c8:	04000593          	li	a1,64
    20cc:	40048513          	addi	a0,s1,1024
    20d0:	0a5000ef          	jal	ra,2974 <GPIO_ReadInputDataBit>
    20d4:	4782                	lw	a5,0(sp)
    20d6:	c388                	sw	a0,0(a5)
    20d8:	201c                	lbu	a5,0(s0)
    20da:	bb0d                	j	1e0c <Statement+0x90a>
    20dc:	03200713          	li	a4,50
    20e0:	00e79f63          	bne	a5,a4,20fe <Statement+0xbfc>
    20e4:	400114b7          	lui	s1,0x40011
    20e8:	02000793          	li	a5,32
    20ec:	086c                	addi	a1,sp,28
    20ee:	40048513          	addi	a0,s1,1024 # 40011400 <__global_pointer$+0x20010bc8>
    20f2:	86fc                	sh	a5,28(sp)
    20f4:	005000ef          	jal	ra,28f8 <GPIO_Init>
    20f8:	02000593          	li	a1,32
    20fc:	bfc1                	j	20cc <Statement+0xbca>
    20fe:	00003537          	lui	a0,0x3
    2102:	74c50513          	addi	a0,a0,1868 # 374c <KeyWordTab+0x244>
    2106:	f86ff06f          	j	188c <Statement+0x38a>
    210a:	00003537          	lui	a0,0x3
    210e:	75c50513          	addi	a0,a0,1884 # 375c <KeyWordTab+0x254>
    2112:	f7aff06f          	j	188c <Statement+0x38a>
    2116:	03200713          	li	a4,50
    211a:	02e79663          	bne	a5,a4,2146 <Statement+0xc44>
    211e:	02000793          	li	a5,32
    2122:	86fc                	sh	a5,28(sp)
    2124:	400117b7          	lui	a5,0x40011
    2128:	086c                	addi	a1,sp,28
    212a:	40078513          	addi	a0,a5,1024 # 40011400 <__global_pointer$+0x20010bc8>
    212e:	7ca000ef          	jal	ra,28f8 <GPIO_Init>
    2132:	4098                	lw	a4,0(s1)
    2134:	400117b7          	lui	a5,0x40011
    2138:	02000593          	li	a1,32
    213c:	e1cff06f          	j	1758 <Statement+0x256>
    2140:	043000ef          	jal	ra,2982 <GPIO_ResetBits>
    2144:	bf51                	j	20d8 <Statement+0xbd6>
    2146:	00003537          	lui	a0,0x3
    214a:	76c50513          	addi	a0,a0,1900 # 376c <KeyWordTab+0x264>
    214e:	f3eff06f          	j	188c <Statement+0x38a>
    2152:	896ff0ef          	jal	ra,11e8 <RemoveNextWhtSP>
    2156:	afeff0ef          	jal	ra,1454 <isExpression>
    215a:	842a                	mv	s0,a0
    215c:	b8050ce3          	beqz	a0,1cf4 <Statement+0x7f2>
    2160:	d541c783          	lbu	a5,-684(gp) # 2000058c <compFlags>
    2164:	0407f793          	andi	a5,a5,64
    2168:	e0078a63          	beqz	a5,177c <Statement+0x27a>
    216c:	400054b7          	lui	s1,0x40005
    2170:	40048793          	addi	a5,s1,1024 # 40005400 <__global_pointer$+0x20004bc8>
    2174:	853e                	mv	a0,a5
    2176:	000205b7          	lui	a1,0x20
    217a:	1ab000ef          	jal	ra,2b24 <I2C_GetFlagStatus>
    217e:	400057b7          	lui	a5,0x40005
    2182:	40078793          	addi	a5,a5,1024 # 40005400 <__global_pointer$+0x20004bc8>
    2186:	f57d                	bnez	a0,2174 <Statement+0xc72>
    2188:	40048513          	addi	a0,s1,1024
    218c:	4585                	li	a1,1
    218e:	000304b7          	lui	s1,0x30
    2192:	111000ef          	jal	ra,2aa2 <I2C_GenerateSTART>
    2196:	0485                	addi	s1,s1,1
    2198:	400057b7          	lui	a5,0x40005
    219c:	40078513          	addi	a0,a5,1024 # 40005400 <__global_pointer$+0x20004bc8>
    21a0:	85a6                	mv	a1,s1
    21a2:	16d000ef          	jal	ra,2b0e <I2C_CheckEvent>
    21a6:	400057b7          	lui	a5,0x40005
    21aa:	d57d                	beqz	a0,2198 <Statement+0xc96>
    21ac:	4601                	li	a2,0
    21ae:	04000593          	li	a1,64
    21b2:	40078513          	addi	a0,a5,1024 # 40005400 <__global_pointer$+0x20004bc8>
    21b6:	000704b7          	lui	s1,0x70
    21ba:	143000ef          	jal	ra,2afc <I2C_Send7bitAddress>
    21be:	08248493          	addi	s1,s1,130 # 70082 <_data_lma+0x6c85a>
    21c2:	400057b7          	lui	a5,0x40005
    21c6:	40078513          	addi	a0,a5,1024 # 40005400 <__global_pointer$+0x20004bc8>
    21ca:	85a6                	mv	a1,s1
    21cc:	143000ef          	jal	ra,2b0e <I2C_CheckEvent>
    21d0:	400057b7          	lui	a5,0x40005
    21d4:	d57d                	beqz	a0,21c2 <Statement+0xcc0>
    21d6:	200c                	lbu	a1,0(s0)
    21d8:	40078513          	addi	a0,a5,1024 # 40005400 <__global_pointer$+0x20004bc8>
    21dc:	000704b7          	lui	s1,0x70
    21e0:	111000ef          	jal	ra,2af0 <I2C_SendData>
    21e4:	08448493          	addi	s1,s1,132 # 70084 <_data_lma+0x6c85c>
    21e8:	400057b7          	lui	a5,0x40005
    21ec:	40078513          	addi	a0,a5,1024 # 40005400 <__global_pointer$+0x20004bc8>
    21f0:	85a6                	mv	a1,s1
    21f2:	11d000ef          	jal	ra,2b0e <I2C_CheckEvent>
    21f6:	400057b7          	lui	a5,0x40005
    21fa:	d57d                	beqz	a0,21e8 <Statement+0xce6>
    21fc:	300c                	lbu	a1,1(s0)
    21fe:	40078513          	addi	a0,a5,1024 # 40005400 <__global_pointer$+0x20004bc8>
    2202:	00070437          	lui	s0,0x70
    2206:	0eb000ef          	jal	ra,2af0 <I2C_SendData>
    220a:	08440413          	addi	s0,s0,132 # 70084 <_data_lma+0x6c85c>
    220e:	400054b7          	lui	s1,0x40005
    2212:	85a2                	mv	a1,s0
    2214:	40048513          	addi	a0,s1,1024 # 40005400 <__global_pointer$+0x20004bc8>
    2218:	0f7000ef          	jal	ra,2b0e <I2C_CheckEvent>
    221c:	d96d                	beqz	a0,220e <Statement+0xd0c>
    221e:	4585                	li	a1,1
    2220:	40048513          	addi	a0,s1,1024
    2224:	099000ef          	jal	ra,2abc <I2C_GenerateSTOP>
    2228:	d54ff06f          	j	177c <Statement+0x27a>
    222c:	fbdfe0ef          	jal	ra,11e8 <RemoveNextWhtSP>
    2230:	8b8ff0ef          	jal	ra,12e8 <isVariableNext>
    2234:	c02a                	sw	a0,0(sp)
    2236:	e6050363          	beqz	a0,189c <Statement+0x39a>
    223a:	d541c783          	lbu	a5,-684(gp) # 2000058c <compFlags>
    223e:	0407f793          	andi	a5,a5,64
    2242:	d2078d63          	beqz	a5,177c <Statement+0x27a>
    2246:	40005437          	lui	s0,0x40005
    224a:	40040493          	addi	s1,s0,1024 # 40005400 <__global_pointer$+0x20004bc8>
    224e:	000205b7          	lui	a1,0x20
    2252:	8526                	mv	a0,s1
    2254:	0d1000ef          	jal	ra,2b24 <I2C_GetFlagStatus>
    2258:	f97d                	bnez	a0,224e <Statement+0xd4c>
    225a:	40040513          	addi	a0,s0,1024
    225e:	4585                	li	a1,1
    2260:	00030437          	lui	s0,0x30
    2264:	03f000ef          	jal	ra,2aa2 <I2C_GenerateSTART>
    2268:	0405                	addi	s0,s0,1
    226a:	400054b7          	lui	s1,0x40005
    226e:	85a2                	mv	a1,s0
    2270:	40048513          	addi	a0,s1,1024 # 40005400 <__global_pointer$+0x20004bc8>
    2274:	09b000ef          	jal	ra,2b0e <I2C_CheckEvent>
    2278:	d96d                	beqz	a0,226a <Statement+0xd68>
    227a:	4605                	li	a2,1
    227c:	04000593          	li	a1,64
    2280:	40048513          	addi	a0,s1,1024
    2284:	00030437          	lui	s0,0x30
    2288:	075000ef          	jal	ra,2afc <I2C_Send7bitAddress>
    228c:	0409                	addi	s0,s0,2
    228e:	40005537          	lui	a0,0x40005
    2292:	85a2                	mv	a1,s0
    2294:	40050513          	addi	a0,a0,1024 # 40005400 <__global_pointer$+0x20004bc8>
    2298:	077000ef          	jal	ra,2b0e <I2C_CheckEvent>
    229c:	d96d                	beqz	a0,228e <Statement+0xd8c>
    229e:	00030437          	lui	s0,0x30
    22a2:	04040413          	addi	s0,s0,64 # 30040 <_data_lma+0x2c818>
    22a6:	400054b7          	lui	s1,0x40005
    22aa:	85a2                	mv	a1,s0
    22ac:	40048513          	addi	a0,s1,1024 # 40005400 <__global_pointer$+0x20004bc8>
    22b0:	05f000ef          	jal	ra,2b0e <I2C_CheckEvent>
    22b4:	d96d                	beqz	a0,22a6 <Statement+0xda4>
    22b6:	40048513          	addi	a0,s1,1024
    22ba:	03b000ef          	jal	ra,2af4 <I2C_ReceiveData>
    22be:	00030737          	lui	a4,0x30
    22c2:	842a                	mv	s0,a0
    22c4:	04070713          	addi	a4,a4,64 # 30040 <_data_lma+0x2c818>
    22c8:	400054b7          	lui	s1,0x40005
    22cc:	85ba                	mv	a1,a4
    22ce:	40048513          	addi	a0,s1,1024 # 40005400 <__global_pointer$+0x20004bc8>
    22d2:	03d000ef          	jal	ra,2b0e <I2C_CheckEvent>
    22d6:	000307b7          	lui	a5,0x30
    22da:	04078713          	addi	a4,a5,64 # 30040 <_data_lma+0x2c818>
    22de:	d56d                	beqz	a0,22c8 <Statement+0xdc6>
    22e0:	40048513          	addi	a0,s1,1024
    22e4:	011000ef          	jal	ra,2af4 <I2C_ReceiveData>
    22e8:	0522                	slli	a0,a0,0x8
    22ea:	8c49                	or	s0,s0,a0
    22ec:	4585                	li	a1,1
    22ee:	40048513          	addi	a0,s1,1024
    22f2:	7ca000ef          	jal	ra,2abc <I2C_GenerateSTOP>
    22f6:	4782                	lw	a5,0(sp)
    22f8:	c380                	sw	s0,0(a5)
    22fa:	c82ff06f          	j	177c <Statement+0x27a>
    22fe:	0785                	addi	a5,a5,1
    2300:	a01c                	sb	a5,0(s0)
    2302:	e12ff06f          	j	1914 <Statement+0x412>

00002306 <main>:
    2306:	d9bfd2ef          	jal	t0,a0 <__riscv_save_0>
    230a:	1161                	addi	sp,sp,-8
    230c:	2991                	jal	2760 <SystemCoreClockUpdate>
    230e:	341000ef          	jal	ra,2e4e <Delay_Init>
    2312:	e88fe0ef          	jal	ra,99a <GPIO_InOut_INIT>
    2316:	939fe0ef          	jal	ra,c4e <TIM1_INT_Init>
    231a:	400134b7          	lui	s1,0x40013
    231e:	40020437          	lui	s0,0x40020
    2322:	20000637          	lui	a2,0x20000
    2326:	02f00693          	li	a3,47
    232a:	03860613          	addi	a2,a2,56 # 20000038 <_edata>
    232e:	00c48593          	addi	a1,s1,12 # 4001300c <__global_pointer$+0x200127d4>
    2332:	03040513          	addi	a0,s0,48 # 40020030 <__global_pointer$+0x2001f7f8>
    2336:	e0afe0ef          	jal	ra,940 <DMA_Tx_Init>
    233a:	c004d783          	lhu	a5,-1024(s1)
    233e:	0017e793          	ori	a5,a5,1
    2342:	c0f49023          	sh	a5,-1024(s1)
    2346:	1141                	addi	sp,sp,-16
    2348:	c616                	sw	t0,12(sp)
    234a:	03800293          	li	t0,56

0000234e <shorttim>:
    234e:	12fd                	addi	t0,t0,-1
    2350:	fe029fe3          	bnez	t0,234e <shorttim>
    2354:	42b2                	lw	t0,12(sp)
    2356:	0141                	addi	sp,sp,16
    2358:	581c                	lw	a5,48(s0)
    235a:	0017e793          	ori	a5,a5,1
    235e:	d81c                	sw	a5,48(s0)
    2360:	e97fd0ef          	jal	ra,1f6 <kbd_init>
    2364:	9f7fe0ef          	jal	ra,d5a <adc_init>
    2368:	00003537          	lui	a0,0x3
    236c:	7d050513          	addi	a0,a0,2000 # 37d0 <KeyWordTab+0x2c8>
    2370:	d0cfe0ef          	jal	ra,87c <WriteTextln>
    2374:	6561                	lui	a0,0x18
    2376:	d6018793          	addi	a5,gp,-672 # 20000598 <line_buffer>
    237a:	577d                	li	a4,-1
    237c:	02000593          	li	a1,32
    2380:	6a050513          	addi	a0,a0,1696 # 186a0 <_data_lma+0x14e78>
    2384:	02e78023          	sb	a4,32(a5)
    2388:	a81fe0ef          	jal	ra,e08 <IIC_Init>
    238c:	0a200513          	li	a0,162
    2390:	af9fe0ef          	jal	ra,e88 <CheckI2CDevice>
    2394:	d6018493          	addi	s1,gp,-672 # 20000598 <line_buffer>
    2398:	e571                	bnez	a0,2464 <shorttim+0x116>
    239a:	00003537          	lui	a0,0x3
    239e:	7e050513          	addi	a0,a0,2016 # 37e0 <KeyWordTab+0x2d8>
    23a2:	cc0fe0ef          	jal	ra,862 <WriteText>
    23a6:	04000513          	li	a0,64
    23aa:	adffe0ef          	jal	ra,e88 <CheckI2CDevice>
    23ae:	e171                	bnez	a0,2472 <shorttim+0x124>
    23b0:	00003537          	lui	a0,0x3
    23b4:	7ec50513          	addi	a0,a0,2028 # 37ec <KeyWordTab+0x2e4>
    23b8:	caafe0ef          	jal	ra,862 <WriteText>
    23bc:	00003537          	lui	a0,0x3
    23c0:	7fc50513          	addi	a0,a0,2044 # 37fc <KeyWordTab+0x2f4>
    23c4:	cb8fe0ef          	jal	ra,87c <WriteTextln>
    23c8:	7771                	lui	a4,0xffffc
    23ca:	400057b7          	lui	a5,0x40005
    23ce:	0715                	addi	a4,a4,5
    23d0:	40e79e23          	sh	a4,1052(a5) # 4000541c <__global_pointer$+0x20004be4>
    23d4:	4501                	li	a0,0
    23d6:	c91fe0ef          	jal	ra,1066 <I2C_read_line>
    23da:	2098                	lbu	a4,0(s1)
    23dc:	0aa00793          	li	a5,170
    23e0:	d5c18413          	addi	s0,gp,-676 # 20000594 <linePointer>
    23e4:	00f71863          	bne	a4,a5,23f4 <shorttim+0xa6>
    23e8:	4785                	li	a5,1
    23ea:	a01c                	sb	a5,0(s0)
    23ec:	05a00713          	li	a4,90
    23f0:	82e18923          	sb	a4,-1998(gp) # 2000006a <KbdData>
    23f4:	a58fe0ef          	jal	ra,64c <GetKeyChar>
    23f8:	c02a                	sw	a0,0(sp)
    23fa:	00010703          	lb	a4,0(sp)
    23fe:	47a5                	li	a5,9
    2400:	2014                	lbu	a3,0(s0)
    2402:	06f71f63          	bne	a4,a5,2480 <shorttim+0x132>
    2406:	47e9                	li	a5,26
    2408:	00d7ea63          	bltu	a5,a3,241c <shorttim+0xce>
    240c:	00004537          	lui	a0,0x4
    2410:	80850513          	addi	a0,a0,-2040 # 3808 <KeyWordTab+0x300>
    2414:	c23a                	sw	a4,4(sp)
    2416:	c4cfe0ef          	jal	ra,862 <WriteText>
    241a:	4712                	lw	a4,4(sp)
    241c:	201c                	lbu	a5,0(s0)
    241e:	46fd                	li	a3,31
    2420:	fcf6eae3          	bltu	a3,a5,23f4 <shorttim+0xa6>
    2424:	46a5                	li	a3,9
    2426:	1ed71c63          	bne	a4,a3,261e <shorttim+0x2d0>
    242a:	4769                	li	a4,26
    242c:	fcf764e3          	bltu	a4,a5,23f4 <shorttim+0xa6>
    2430:	02000693          	li	a3,32
    2434:	00f48733          	add	a4,s1,a5
    2438:	a314                	sb	a3,0(a4)
    243a:	00178713          	addi	a4,a5,1
    243e:	0ff77713          	andi	a4,a4,255
    2442:	9726                	add	a4,a4,s1
    2444:	a314                	sb	a3,0(a4)
    2446:	00278713          	addi	a4,a5,2
    244a:	0ff77713          	andi	a4,a4,255
    244e:	9726                	add	a4,a4,s1
    2450:	a314                	sb	a3,0(a4)
    2452:	00478713          	addi	a4,a5,4
    2456:	078d                	addi	a5,a5,3
    2458:	0ff7f793          	andi	a5,a5,255
    245c:	97a6                	add	a5,a5,s1
    245e:	a018                	sb	a4,0(s0)
    2460:	a394                	sb	a3,0(a5)
    2462:	bf49                	j	23f4 <shorttim+0xa6>
    2464:	d5418793          	addi	a5,gp,-684 # 2000058c <compFlags>
    2468:	2398                	lbu	a4,0(a5)
    246a:	f8076713          	ori	a4,a4,-128
    246e:	a398                	sb	a4,0(a5)
    2470:	bf1d                	j	23a6 <shorttim+0x58>
    2472:	d5418793          	addi	a5,gp,-684 # 2000058c <compFlags>
    2476:	2398                	lbu	a4,0(a5)
    2478:	04076713          	ori	a4,a4,64
    247c:	a398                	sb	a4,0(a5)
    247e:	bf3d                	j	23bc <shorttim+0x6e>
    2480:	47fd                	li	a5,31
    2482:	00d7e663          	bltu	a5,a3,248e <shorttim+0x140>
    2486:	c23a                	sw	a4,4(sp)
    2488:	a1efe0ef          	jal	ra,6a6 <WriteChar>
    248c:	4712                	lw	a4,4(sp)
    248e:	46a9                	li	a3,10
    2490:	201c                	lbu	a5,0(s0)
    2492:	10d71063          	bne	a4,a3,2592 <shorttim+0x244>
    2496:	577d                	li	a4,-1
    2498:	97a6                	add	a5,a5,s1
    249a:	a398                	sb	a4,0(a5)
    249c:	d4018aa3          	sb	zero,-683(gp) # 2000058d <currentLine>
    24a0:	00040023          	sb	zero,0(s0)
    24a4:	d13fe0ef          	jal	ra,11b6 <RemoveWhtSP>
    24a8:	d7dfe0ef          	jal	ra,1224 <isNumberNext>
    24ac:	d5518793          	addi	a5,gp,-683 # 2000058d <currentLine>
    24b0:	c03e                	sw	a5,0(sp)
    24b2:	c905                	beqz	a0,24e2 <shorttim+0x194>
    24b4:	c02a                	sw	a0,0(sp)
    24b6:	d01fe0ef          	jal	ra,11b6 <RemoveWhtSP>
    24ba:	4502                	lw	a0,0(sp)
    24bc:	07f00793          	li	a5,127
    24c0:	4108                	lw	a0,0(a0)
    24c2:	00a7e963          	bltu	a5,a0,24d4 <shorttim+0x186>
    24c6:	0ff57513          	andi	a0,a0,255
    24ca:	b29fe0ef          	jal	ra,ff2 <I2C_write_line>
    24ce:	00040023          	sb	zero,0(s0)
    24d2:	b70d                	j	23f4 <shorttim+0xa6>
    24d4:	00004537          	lui	a0,0x4
    24d8:	81050513          	addi	a0,a0,-2032 # 3810 <KeyWordTab+0x308>
    24dc:	c2efe0ef          	jal	ra,90a <WriteErrMsg>
    24e0:	b7fd                	j	24ce <shorttim+0x180>
    24e2:	4782                	lw	a5,0(sp)
    24e4:	239c                	lbu	a5,0(a5)
    24e6:	c23e                	sw	a5,4(sp)
    24e8:	81aff0ef          	jal	ra,1502 <Statement>
    24ec:	ccbfe0ef          	jal	ra,11b6 <RemoveWhtSP>
    24f0:	4782                	lw	a5,0(sp)
    24f2:	4712                	lw	a4,4(sp)
    24f4:	239c                	lbu	a5,0(a5)
    24f6:	00e79d63          	bne	a5,a4,2510 <shorttim+0x1c2>
    24fa:	201c                	lbu	a5,0(s0)
    24fc:	97a6                	add	a5,a5,s1
    24fe:	2398                	lbu	a4,0(a5)
    2500:	03b00793          	li	a5,59
    2504:	00f71663          	bne	a4,a5,2510 <shorttim+0x1c2>
    2508:	ce1fe0ef          	jal	ra,11e8 <RemoveNextWhtSP>
    250c:	ff7fe0ef          	jal	ra,1502 <Statement>
    2510:	ca7fe0ef          	jal	ra,11b6 <RemoveWhtSP>
    2514:	4782                	lw	a5,0(sp)
    2516:	4712                	lw	a4,4(sp)
    2518:	239c                	lbu	a5,0(a5)
    251a:	00e79d63          	bne	a5,a4,2534 <shorttim+0x1e6>
    251e:	201c                	lbu	a5,0(s0)
    2520:	97a6                	add	a5,a5,s1
    2522:	2398                	lbu	a4,0(a5)
    2524:	03b00793          	li	a5,59
    2528:	00f71663          	bne	a4,a5,2534 <shorttim+0x1e6>
    252c:	cbdfe0ef          	jal	ra,11e8 <RemoveNextWhtSP>
    2530:	fd3fe0ef          	jal	ra,1502 <Statement>
    2534:	83518793          	addi	a5,gp,-1995 # 2000006d <RunMode>
    2538:	239c                	lbu	a5,0(a5)
    253a:	83518713          	addi	a4,gp,-1995 # 2000006d <RunMode>
    253e:	0ff7f793          	andi	a5,a5,255
    2542:	cb91                	beqz	a5,2556 <shorttim+0x208>
    2544:	4782                	lw	a5,0(sp)
    2546:	4692                	lw	a3,4(sp)
    2548:	239c                	lbu	a5,0(a5)
    254a:	00f69663          	bne	a3,a5,2556 <shorttim+0x208>
    254e:	00168793          	addi	a5,a3,1 # 400001 <_data_lma+0x3fc7d9>
    2552:	4682                	lw	a3,0(sp)
    2554:	a29c                	sb	a5,0(a3)
    2556:	4782                	lw	a5,0(sp)
    2558:	2388                	lbu	a0,0(a5)
    255a:	01851793          	slli	a5,a0,0x18
    255e:	87e1                	srai	a5,a5,0x18
    2560:	0207d263          	bgez	a5,2584 <shorttim+0x236>
    2564:	4782                	lw	a5,0(sp)
    2566:	00070023          	sb	zero,0(a4) # ffffc000 <__global_pointer$+0xdfffb7c8>
    256a:	00078023          	sb	zero,0(a5)
    256e:	231c                	lbu	a5,0(a4)
    2570:	0ff7f793          	andi	a5,a5,255
    2574:	f7bd                	bnez	a5,24e2 <shorttim+0x194>
    2576:	00004537          	lui	a0,0x4
    257a:	82450513          	addi	a0,a0,-2012 # 3824 <KeyWordTab+0x31c>
    257e:	afefe0ef          	jal	ra,87c <WriteTextln>
    2582:	b7b1                	j	24ce <shorttim+0x180>
    2584:	ae3fe0ef          	jal	ra,1066 <I2C_read_line>
    2588:	00040023          	sb	zero,0(s0)
    258c:	83518713          	addi	a4,gp,-1995 # 2000006d <RunMode>
    2590:	bff9                	j	256e <shorttim+0x220>
    2592:	46a1                	li	a3,8
    2594:	e8d714e3          	bne	a4,a3,241c <shorttim+0xce>
    2598:	e4078ee3          	beqz	a5,23f4 <shorttim+0xa6>
    259c:	17fd                	addi	a5,a5,-1
    259e:	0ff7f793          	andi	a5,a5,255
    25a2:	a01c                	sb	a5,0(s0)
    25a4:	97a6                	add	a5,a5,s1
    25a6:	239c                	lbu	a5,0(a5)
    25a8:	09f00713          	li	a4,159
    25ac:	00f76f63          	bltu	a4,a5,25ca <shorttim+0x27c>
    25b0:	d5618713          	addi	a4,gp,-682 # 2000058e <dispPointer>
    25b4:	231e                	lhu	a5,0(a4)
    25b6:	17fd                	addi	a5,a5,-1
    25b8:	07c2                	slli	a5,a5,0x10
    25ba:	83c1                	srli	a5,a5,0x10
    25bc:	a31e                	sh	a5,0(a4)
    25be:	83818713          	addi	a4,gp,-1992 # 20000070 <VideoRAM>
    25c2:	97ba                	add	a5,a5,a4
    25c4:	00078023          	sb	zero,0(a5)
    25c8:	b535                	j	23f4 <shorttim+0xa6>
    25ca:	0bb00713          	li	a4,187
    25ce:	e2f763e3          	bltu	a4,a5,23f4 <shorttim+0xa6>
    25d2:	670d                	lui	a4,0x3
    25d4:	f6078793          	addi	a5,a5,-160
    25d8:	50870713          	addi	a4,a4,1288 # 3508 <KeyWordTab>
    25dc:	078e                	slli	a5,a5,0x3
    25de:	97ba                	add	a5,a5,a4
    25e0:	2388                	lbu	a0,0(a5)
    25e2:	4581                	li	a1,0
    25e4:	d561d783          	lhu	a5,-682(gp) # 2000058e <dispPointer>
    25e8:	4601                	li	a2,0
    25ea:	d5618693          	addi	a3,gp,-682 # 2000058e <dispPointer>
    25ee:	83818713          	addi	a4,gp,-1992 # 20000070 <VideoRAM>
    25f2:	4305                	li	t1,1
    25f4:	00a64963          	blt	a2,a0,2606 <shorttim+0x2b8>
    25f8:	c191                	beqz	a1,25fc <shorttim+0x2ae>
    25fa:	a29e                	sh	a5,0(a3)
    25fc:	229e                	lhu	a5,0(a3)
    25fe:	973e                	add	a4,a4,a5
    2600:	00070023          	sb	zero,0(a4)
    2604:	bbc5                	j	23f4 <shorttim+0xa6>
    2606:	00f702b3          	add	t0,a4,a5
    260a:	00028023          	sb	zero,0(t0)
    260e:	00f37663          	bgeu	t1,a5,261a <shorttim+0x2cc>
    2612:	17fd                	addi	a5,a5,-1
    2614:	07c2                	slli	a5,a5,0x10
    2616:	83c1                	srli	a5,a5,0x10
    2618:	4585                	li	a1,1
    261a:	0605                	addi	a2,a2,1
    261c:	bfe1                	j	25f4 <shorttim+0x2a6>
    261e:	4682                	lw	a3,0(sp)
    2620:	00f48733          	add	a4,s1,a5
    2624:	0785                	addi	a5,a5,1
    2626:	a314                	sb	a3,0(a4)
    2628:	a01c                	sb	a5,0(s0)
    262a:	b3e9                	j	23f4 <shorttim+0xa6>

0000262c <SystemInit>:
    262c:	a75fd2ef          	jal	t0,a0 <__riscv_save_0>
    2630:	40021437          	lui	s0,0x40021
    2634:	401c                	lw	a5,0(s0)
    2636:	f8ff0737          	lui	a4,0xf8ff0
    263a:	1161                	addi	sp,sp,-8
    263c:	0017e793          	ori	a5,a5,1
    2640:	c01c                	sw	a5,0(s0)
    2642:	405c                	lw	a5,4(s0)
    2644:	4541                	li	a0,16
    2646:	8ff9                	and	a5,a5,a4
    2648:	c05c                	sw	a5,4(s0)
    264a:	401c                	lw	a5,0(s0)
    264c:	fef70737          	lui	a4,0xfef70
    2650:	177d                	addi	a4,a4,-1
    2652:	8ff9                	and	a5,a5,a4
    2654:	c01c                	sw	a5,0(s0)
    2656:	401c                	lw	a5,0(s0)
    2658:	fffc0737          	lui	a4,0xfffc0
    265c:	177d                	addi	a4,a4,-1
    265e:	8ff9                	and	a5,a5,a4
    2660:	c01c                	sw	a5,0(s0)
    2662:	405c                	lw	a5,4(s0)
    2664:	7741                	lui	a4,0xffff0
    2666:	177d                	addi	a4,a4,-1
    2668:	8ff9                	and	a5,a5,a4
    266a:	c05c                	sw	a5,4(s0)
    266c:	009f07b7          	lui	a5,0x9f0
    2670:	c41c                	sw	a5,8(s0)
    2672:	2b25                	jal	2baa <RCC_AdjustHSICalibrationValue>
    2674:	4c1c                	lw	a5,24(s0)
    2676:	00020637          	lui	a2,0x20
    267a:	0207e793          	ori	a5,a5,32
    267e:	cc1c                	sw	a5,24(s0)
    2680:	400117b7          	lui	a5,0x40011
    2684:	4007a703          	lw	a4,1024(a5) # 40011400 <__global_pointer$+0x20010bc8>
    2688:	40078693          	addi	a3,a5,1024
    268c:	f0f77713          	andi	a4,a4,-241
    2690:	40e7a023          	sw	a4,1024(a5)
    2694:	4007a703          	lw	a4,1024(a5)
    2698:	08076713          	ori	a4,a4,128
    269c:	40e7a023          	sw	a4,1024(a5)
    26a0:	4789                	li	a5,2
    26a2:	ca9c                	sw	a5,16(a3)
    26a4:	c002                	sw	zero,0(sp)
    26a6:	c202                	sw	zero,4(sp)
    26a8:	4c1c                	lw	a5,24(s0)
    26aa:	40010737          	lui	a4,0x40010
    26ae:	66a1                	lui	a3,0x8
    26b0:	0017e793          	ori	a5,a5,1
    26b4:	cc1c                	sw	a5,24(s0)
    26b6:	435c                	lw	a5,4(a4)
    26b8:	8fd5                	or	a5,a5,a3
    26ba:	c35c                	sw	a5,4(a4)
    26bc:	401c                	lw	a5,0(s0)
    26be:	6741                	lui	a4,0x10
    26c0:	400216b7          	lui	a3,0x40021
    26c4:	8fd9                	or	a5,a5,a4
    26c6:	c01c                	sw	a5,0(s0)
    26c8:	6709                	lui	a4,0x2
    26ca:	429c                	lw	a5,0(a3)
    26cc:	8ff1                	and	a5,a5,a2
    26ce:	c23e                	sw	a5,4(sp)
    26d0:	4782                	lw	a5,0(sp)
    26d2:	0785                	addi	a5,a5,1
    26d4:	c03e                	sw	a5,0(sp)
    26d6:	4792                	lw	a5,4(sp)
    26d8:	e781                	bnez	a5,26e0 <SystemInit+0xb4>
    26da:	4782                	lw	a5,0(sp)
    26dc:	fee797e3          	bne	a5,a4,26ca <SystemInit+0x9e>
    26e0:	400217b7          	lui	a5,0x40021
    26e4:	439c                	lw	a5,0(a5)
    26e6:	00e79713          	slli	a4,a5,0xe
    26ea:	06075963          	bgez	a4,275c <SystemInit+0x130>
    26ee:	4785                	li	a5,1
    26f0:	c23e                	sw	a5,4(sp)
    26f2:	4712                	lw	a4,4(sp)
    26f4:	4785                	li	a5,1
    26f6:	06f71063          	bne	a4,a5,2756 <SystemInit+0x12a>
    26fa:	400227b7          	lui	a5,0x40022
    26fe:	4398                	lw	a4,0(a5)
    2700:	76c1                	lui	a3,0xffff0
    2702:	16fd                	addi	a3,a3,-1
    2704:	9b71                	andi	a4,a4,-4
    2706:	c398                	sw	a4,0(a5)
    2708:	4398                	lw	a4,0(a5)
    270a:	00176713          	ori	a4,a4,1
    270e:	c398                	sw	a4,0(a5)
    2710:	400217b7          	lui	a5,0x40021
    2714:	43d8                	lw	a4,4(a5)
    2716:	c3d8                	sw	a4,4(a5)
    2718:	43d8                	lw	a4,4(a5)
    271a:	8f75                	and	a4,a4,a3
    271c:	c3d8                	sw	a4,4(a5)
    271e:	43d8                	lw	a4,4(a5)
    2720:	66c1                	lui	a3,0x10
    2722:	8f55                	or	a4,a4,a3
    2724:	c3d8                	sw	a4,4(a5)
    2726:	4398                	lw	a4,0(a5)
    2728:	010006b7          	lui	a3,0x1000
    272c:	8f55                	or	a4,a4,a3
    272e:	c398                	sw	a4,0(a5)
    2730:	4398                	lw	a4,0(a5)
    2732:	00671693          	slli	a3,a4,0x6
    2736:	fe06dde3          	bgez	a3,2730 <SystemInit+0x104>
    273a:	43d8                	lw	a4,4(a5)
    273c:	400216b7          	lui	a3,0x40021
    2740:	9b71                	andi	a4,a4,-4
    2742:	c3d8                	sw	a4,4(a5)
    2744:	43d8                	lw	a4,4(a5)
    2746:	00276713          	ori	a4,a4,2
    274a:	c3d8                	sw	a4,4(a5)
    274c:	4721                	li	a4,8
    274e:	42dc                	lw	a5,4(a3)
    2750:	8bb1                	andi	a5,a5,12
    2752:	fee79ee3          	bne	a5,a4,274e <SystemInit+0x122>
    2756:	0121                	addi	sp,sp,8
    2758:	953fd06f          	j	aa <__riscv_restore_0>
    275c:	c202                	sw	zero,4(sp)
    275e:	bf51                	j	26f2 <SystemInit+0xc6>

00002760 <SystemCoreClockUpdate>:
    2760:	941fd2ef          	jal	t0,a0 <__riscv_save_0>
    2764:	40021737          	lui	a4,0x40021
    2768:	435c                	lw	a5,4(a4)
    276a:	20000437          	lui	s0,0x20000
    276e:	4691                	li	a3,4
    2770:	8bb1                	andi	a5,a5,12
    2772:	01040413          	addi	s0,s0,16 # 20000010 <SystemCoreClock>
    2776:	00d78563          	beq	a5,a3,2780 <SystemCoreClockUpdate+0x20>
    277a:	46a1                	li	a3,8
    277c:	04d78263          	beq	a5,a3,27c0 <SystemCoreClockUpdate+0x60>
    2780:	016e37b7          	lui	a5,0x16e3
    2784:	60078793          	addi	a5,a5,1536 # 16e3600 <_data_lma+0x16dfdd8>
    2788:	c01c                	sw	a5,0(s0)
    278a:	400216b7          	lui	a3,0x40021
    278e:	42dc                	lw	a5,4(a3)
    2790:	4008                	lw	a0,0(s0)
    2792:	8391                	srli	a5,a5,0x4
    2794:	00f7f713          	andi	a4,a5,15
    2798:	200007b7          	lui	a5,0x20000
    279c:	00078793          	mv	a5,a5
    27a0:	97ba                	add	a5,a5,a4
    27a2:	238c                	lbu	a1,0(a5)
    27a4:	42dc                	lw	a5,4(a3)
    27a6:	0ff5f593          	andi	a1,a1,255
    27aa:	0807f793          	andi	a5,a5,128
    27ae:	00b55733          	srl	a4,a0,a1
    27b2:	e781                	bnez	a5,27ba <SystemCoreClockUpdate+0x5a>
    27b4:	921fd0ef          	jal	ra,d4 <__udivsi3>
    27b8:	872a                	mv	a4,a0
    27ba:	c018                	sw	a4,0(s0)
    27bc:	8effd06f          	j	aa <__riscv_restore_0>
    27c0:	435c                	lw	a5,4(a4)
    27c2:	02dc77b7          	lui	a5,0x2dc7
    27c6:	c0078793          	addi	a5,a5,-1024 # 2dc6c00 <_data_lma+0x2dc33d8>
    27ca:	bf7d                	j	2788 <SystemCoreClockUpdate+0x28>

000027cc <ADC1_IRQHandler>:
    27cc:	a001                	j	27cc <ADC1_IRQHandler>

000027ce <handle_reset>:
    27ce:	1fffe197          	auipc	gp,0x1fffe
    27d2:	06a18193          	addi	gp,gp,106 # 20000838 <__global_pointer$>
    27d6:	fc818113          	addi	sp,gp,-56 # 20000800 <_eusrstack>
    27da:	00001517          	auipc	a0,0x1
    27de:	04e50513          	addi	a0,a0,78 # 3828 <_data_lma>
    27e2:	1fffe597          	auipc	a1,0x1fffe
    27e6:	81e58593          	addi	a1,a1,-2018 # 20000000 <_data_vma>
    27ea:	1fffe617          	auipc	a2,0x1fffe
    27ee:	84e60613          	addi	a2,a2,-1970 # 20000038 <_edata>
    27f2:	00c5fa63          	bgeu	a1,a2,2806 <handle_reset+0x38>
    27f6:	00052283          	lw	t0,0(a0)
    27fa:	0055a023          	sw	t0,0(a1)
    27fe:	0511                	addi	a0,a0,4
    2800:	0591                	addi	a1,a1,4
    2802:	fec5eae3          	bltu	a1,a2,27f6 <handle_reset+0x28>
    2806:	1fffe517          	auipc	a0,0x1fffe
    280a:	83250513          	addi	a0,a0,-1998 # 20000038 <_edata>
    280e:	da018593          	addi	a1,gp,-608 # 200005d8 <_ebss>
    2812:	00b57763          	bgeu	a0,a1,2820 <handle_reset+0x52>
    2816:	00052023          	sw	zero,0(a0)
    281a:	0511                	addi	a0,a0,4
    281c:	feb56de3          	bltu	a0,a1,2816 <handle_reset+0x48>
    2820:	000022b7          	lui	t0,0x2
    2824:	88028293          	addi	t0,t0,-1920 # 1880 <Statement+0x37e>
    2828:	30029073          	csrw	mstatus,t0
    282c:	428d                	li	t0,3
    282e:	80429073          	csrw	0x804,t0
    2832:	ffffd297          	auipc	t0,0xffffd
    2836:	7ce28293          	addi	t0,t0,1998 # 0 <_sinit>
    283a:	0032e293          	ori	t0,t0,3
    283e:	30529073          	csrw	mtvec,t0
    2842:	debff0ef          	jal	ra,262c <SystemInit>
    2846:	00000297          	auipc	t0,0x0
    284a:	ac028293          	addi	t0,t0,-1344 # 2306 <main>
    284e:	34129073          	csrw	mepc,t0
    2852:	30200073          	mret

00002856 <DMA_Init>:
    2856:	4118                	lw	a4,0(a0)
    2858:	77e1                	lui	a5,0xffff8
    285a:	07bd                	addi	a5,a5,15
    285c:	5194                	lw	a3,32(a1)
    285e:	8f7d                	and	a4,a4,a5
    2860:	459c                	lw	a5,8(a1)
    2862:	8fd5                	or	a5,a5,a3
    2864:	4994                	lw	a3,16(a1)
    2866:	8fd5                	or	a5,a5,a3
    2868:	49d4                	lw	a3,20(a1)
    286a:	8fd5                	or	a5,a5,a3
    286c:	4d94                	lw	a3,24(a1)
    286e:	8fd5                	or	a5,a5,a3
    2870:	4dd4                	lw	a3,28(a1)
    2872:	8fd5                	or	a5,a5,a3
    2874:	51d4                	lw	a3,36(a1)
    2876:	8fd5                	or	a5,a5,a3
    2878:	5594                	lw	a3,40(a1)
    287a:	8fd5                	or	a5,a5,a3
    287c:	8fd9                	or	a5,a5,a4
    287e:	c11c                	sw	a5,0(a0)
    2880:	45dc                	lw	a5,12(a1)
    2882:	c15c                	sw	a5,4(a0)
    2884:	419c                	lw	a5,0(a1)
    2886:	c51c                	sw	a5,8(a0)
    2888:	41dc                	lw	a5,4(a1)
    288a:	c55c                	sw	a5,12(a0)
    288c:	8082                	ret

0000288e <EXTI_Init>:
    288e:	4158                	lw	a4,4(a0)
    2890:	00052303          	lw	t1,0(a0)
    2894:	454c                	lw	a1,12(a0)
    2896:	40010637          	lui	a2,0x40010
    289a:	40060793          	addi	a5,a2,1024 # 40010400 <__global_pointer$+0x2000fbc8>
    289e:	973e                	add	a4,a4,a5
    28a0:	fff34693          	not	a3,t1
    28a4:	c5b1                	beqz	a1,28f0 <EXTI_Init+0x62>
    28a6:	40062583          	lw	a1,1024(a2)
    28aa:	8df5                	and	a1,a1,a3
    28ac:	40b62023          	sw	a1,1024(a2)
    28b0:	43d0                	lw	a2,4(a5)
    28b2:	8ef1                	and	a3,a3,a2
    28b4:	c3d4                	sw	a3,4(a5)
    28b6:	4314                	lw	a3,0(a4)
    28b8:	0066e6b3          	or	a3,a3,t1
    28bc:	c314                	sw	a3,0(a4)
    28be:	4118                	lw	a4,0(a0)
    28c0:	4790                	lw	a2,8(a5)
    28c2:	fff74693          	not	a3,a4
    28c6:	8e75                	and	a2,a2,a3
    28c8:	c790                	sw	a2,8(a5)
    28ca:	47d0                	lw	a2,12(a5)
    28cc:	8ef1                	and	a3,a3,a2
    28ce:	c7d4                	sw	a3,12(a5)
    28d0:	4514                	lw	a3,8(a0)
    28d2:	4641                	li	a2,16
    28d4:	00c69963          	bne	a3,a2,28e6 <EXTI_Init+0x58>
    28d8:	4794                	lw	a3,8(a5)
    28da:	8ed9                	or	a3,a3,a4
    28dc:	c794                	sw	a3,8(a5)
    28de:	47d4                	lw	a3,12(a5)
    28e0:	8f55                	or	a4,a4,a3
    28e2:	c7d8                	sw	a4,12(a5)
    28e4:	8082                	ret
    28e6:	97b6                	add	a5,a5,a3
    28e8:	4394                	lw	a3,0(a5)
    28ea:	8f55                	or	a4,a4,a3
    28ec:	c398                	sw	a4,0(a5)
    28ee:	8082                	ret
    28f0:	431c                	lw	a5,0(a4)
    28f2:	8ff5                	and	a5,a5,a3
    28f4:	c31c                	sw	a5,0(a4)
    28f6:	8082                	ret

000028f8 <GPIO_Init>:
    28f8:	4594                	lw	a3,8(a1)
    28fa:	0106f793          	andi	a5,a3,16
    28fe:	00f6f293          	andi	t0,a3,15
    2902:	c781                	beqz	a5,290a <GPIO_Init+0x12>
    2904:	41dc                	lw	a5,4(a1)
    2906:	00f2e2b3          	or	t0,t0,a5
    290a:	0005d383          	lhu	t2,0(a1)
    290e:	0ff3f793          	andi	a5,t2,255
    2912:	c3a5                	beqz	a5,2972 <GPIO_Init+0x7a>
    2914:	00052303          	lw	t1,0(a0)
    2918:	1161                	addi	sp,sp,-8
    291a:	c222                	sw	s0,4(sp)
    291c:	c026                	sw	s1,0(sp)
    291e:	4781                	li	a5,0
    2920:	02800413          	li	s0,40
    2924:	04800493          	li	s1,72
    2928:	4705                	li	a4,1
    292a:	00f71633          	sll	a2,a4,a5
    292e:	00c3f733          	and	a4,t2,a2
    2932:	02e61263          	bne	a2,a4,2956 <GPIO_Init+0x5e>
    2936:	00279593          	slli	a1,a5,0x2
    293a:	473d                	li	a4,15
    293c:	00b71733          	sll	a4,a4,a1
    2940:	fff74713          	not	a4,a4
    2944:	00677333          	and	t1,a4,t1
    2948:	00b295b3          	sll	a1,t0,a1
    294c:	0065e333          	or	t1,a1,t1
    2950:	00869d63          	bne	a3,s0,296a <GPIO_Init+0x72>
    2954:	c950                	sw	a2,20(a0)
    2956:	0785                	addi	a5,a5,1
    2958:	4721                	li	a4,8
    295a:	fce797e3          	bne	a5,a4,2928 <GPIO_Init+0x30>
    295e:	4412                	lw	s0,4(sp)
    2960:	00652023          	sw	t1,0(a0)
    2964:	4482                	lw	s1,0(sp)
    2966:	0121                	addi	sp,sp,8
    2968:	8082                	ret
    296a:	fe9696e3          	bne	a3,s1,2956 <GPIO_Init+0x5e>
    296e:	c910                	sw	a2,16(a0)
    2970:	b7dd                	j	2956 <GPIO_Init+0x5e>
    2972:	8082                	ret

00002974 <GPIO_ReadInputDataBit>:
    2974:	4508                	lw	a0,8(a0)
    2976:	8d6d                	and	a0,a0,a1
    2978:	00a03533          	snez	a0,a0
    297c:	8082                	ret

0000297e <GPIO_SetBits>:
    297e:	c90c                	sw	a1,16(a0)
    2980:	8082                	ret

00002982 <GPIO_ResetBits>:
    2982:	c94c                	sw	a1,20(a0)
    2984:	8082                	ret

00002986 <GPIO_EXTILineConfig>:
    2986:	40010737          	lui	a4,0x40010
    298a:	4714                	lw	a3,8(a4)
    298c:	0586                	slli	a1,a1,0x1
    298e:	478d                	li	a5,3
    2990:	00b797b3          	sll	a5,a5,a1
    2994:	fff7c793          	not	a5,a5
    2998:	8ff5                	and	a5,a5,a3
    299a:	c71c                	sw	a5,8(a4)
    299c:	471c                	lw	a5,8(a4)
    299e:	00b515b3          	sll	a1,a0,a1
    29a2:	8ddd                	or	a1,a1,a5
    29a4:	c70c                	sw	a1,8(a4)
    29a6:	8082                	ret

000029a8 <I2C_Init>:
    29a8:	ef8fd2ef          	jal	t0,a0 <__riscv_save_0>
    29ac:	1111                	addi	sp,sp,-28
    29ae:	2146                	lhu	s1,4(a0)
    29b0:	842a                	mv	s0,a0
    29b2:	0028                	addi	a0,sp,8
    29b4:	c02e                	sw	a1,0(sp)
    29b6:	2419                	jal	2bbc <RCC_GetClocksFreq>
    29b8:	46c2                	lw	a3,16(sp)
    29ba:	04c2                	slli	s1,s1,0x10
    29bc:	80c1                	srli	s1,s1,0x10
    29be:	fc04f493          	andi	s1,s1,-64
    29c2:	000f45b7          	lui	a1,0xf4
    29c6:	24058593          	addi	a1,a1,576 # f4240 <_data_lma+0xf0a18>
    29ca:	8536                	mv	a0,a3
    29cc:	04c2                	slli	s1,s1,0x10
    29ce:	c236                	sw	a3,4(sp)
    29d0:	80c1                	srli	s1,s1,0x10
    29d2:	f02fd0ef          	jal	ra,d4 <__udivsi3>
    29d6:	8d45                	or	a0,a0,s1
    29d8:	0542                	slli	a0,a0,0x10
    29da:	8141                	srli	a0,a0,0x10
    29dc:	a04a                	sh	a0,4(s0)
    29de:	201e                	lhu	a5,0(s0)
    29e0:	4692                	lw	a3,4(sp)
    29e2:	07c2                	slli	a5,a5,0x10
    29e4:	83c1                	srli	a5,a5,0x10
    29e6:	9bf9                	andi	a5,a5,-2
    29e8:	07c2                	slli	a5,a5,0x10
    29ea:	83c1                	srli	a5,a5,0x10
    29ec:	a01e                	sh	a5,0(s0)
    29ee:	4782                	lw	a5,0(sp)
    29f0:	4390                	lw	a2,0(a5)
    29f2:	67e1                	lui	a5,0x18
    29f4:	6a078793          	addi	a5,a5,1696 # 186a0 <_data_lma+0x14e78>
    29f8:	00161593          	slli	a1,a2,0x1
    29fc:	04c7e663          	bltu	a5,a2,2a48 <I2C_Init+0xa0>
    2a00:	8536                	mv	a0,a3
    2a02:	ed2fd0ef          	jal	ra,d4 <__udivsi3>
    2a06:	87aa                	mv	a5,a0
    2a08:	0542                	slli	a0,a0,0x10
    2a0a:	8141                	srli	a0,a0,0x10
    2a0c:	4691                	li	a3,4
    2a0e:	00d57363          	bgeu	a0,a3,2a14 <I2C_Init+0x6c>
    2a12:	4791                	li	a5,4
    2a14:	01079513          	slli	a0,a5,0x10
    2a18:	8141                	srli	a0,a0,0x10
    2a1a:	ac4a                	sh	a0,28(s0)
    2a1c:	201e                	lhu	a5,0(s0)
    2a1e:	4702                	lw	a4,0(sp)
    2a20:	0017e793          	ori	a5,a5,1
    2a24:	a01e                	sh	a5,0(s0)
    2a26:	201e                	lhu	a5,0(s0)
    2a28:	2356                	lhu	a3,4(a4)
    2a2a:	2732                	lhu	a2,10(a4)
    2a2c:	07c2                	slli	a5,a5,0x10
    2a2e:	83c1                	srli	a5,a5,0x10
    2a30:	8ed1                	or	a3,a3,a2
    2a32:	bf57f793          	andi	a5,a5,-1035
    2a36:	8fd5                	or	a5,a5,a3
    2a38:	a01e                	sh	a5,0(s0)
    2a3a:	2716                	lhu	a3,8(a4)
    2a3c:	275e                	lhu	a5,12(a4)
    2a3e:	8fd5                	or	a5,a5,a3
    2a40:	a41e                	sh	a5,8(s0)
    2a42:	0171                	addi	sp,sp,28
    2a44:	e66fd06f          	j	aa <__riscv_restore_0>
    2a48:	4782                	lw	a5,0(sp)
    2a4a:	23ea                	lhu	a0,6(a5)
    2a4c:	67b1                	lui	a5,0xc
    2a4e:	17fd                	addi	a5,a5,-1
    2a50:	02f51063          	bne	a0,a5,2a70 <I2C_Init+0xc8>
    2a54:	95b2                	add	a1,a1,a2
    2a56:	8536                	mv	a0,a3
    2a58:	e7cfd0ef          	jal	ra,d4 <__udivsi3>
    2a5c:	0542                	slli	a0,a0,0x10
    2a5e:	8141                	srli	a0,a0,0x10
    2a60:	01451793          	slli	a5,a0,0x14
    2a64:	e399                	bnez	a5,2a6a <I2C_Init+0xc2>
    2a66:	00156513          	ori	a0,a0,1
    2a6a:	67a1                	lui	a5,0x8
    2a6c:	8d5d                	or	a0,a0,a5
    2a6e:	b775                	j	2a1a <I2C_Init+0x72>
    2a70:	00c587b3          	add	a5,a1,a2
    2a74:	078e                	slli	a5,a5,0x3
    2a76:	00c785b3          	add	a1,a5,a2
    2a7a:	8536                	mv	a0,a3
    2a7c:	e58fd0ef          	jal	ra,d4 <__udivsi3>
    2a80:	0542                	slli	a0,a0,0x10
    2a82:	8141                	srli	a0,a0,0x10
    2a84:	6791                	lui	a5,0x4
    2a86:	8d5d                	or	a0,a0,a5
    2a88:	bfe1                	j	2a60 <I2C_Init+0xb8>

00002a8a <I2C_Cmd>:
    2a8a:	211e                	lhu	a5,0(a0)
    2a8c:	c589                	beqz	a1,2a96 <I2C_Cmd+0xc>
    2a8e:	0017e793          	ori	a5,a5,1
    2a92:	a11e                	sh	a5,0(a0)
    2a94:	8082                	ret
    2a96:	07c2                	slli	a5,a5,0x10
    2a98:	83c1                	srli	a5,a5,0x10
    2a9a:	9bf9                	andi	a5,a5,-2
    2a9c:	07c2                	slli	a5,a5,0x10
    2a9e:	83c1                	srli	a5,a5,0x10
    2aa0:	bfcd                	j	2a92 <I2C_Cmd+0x8>

00002aa2 <I2C_GenerateSTART>:
    2aa2:	211e                	lhu	a5,0(a0)
    2aa4:	c589                	beqz	a1,2aae <I2C_GenerateSTART+0xc>
    2aa6:	1007e793          	ori	a5,a5,256
    2aaa:	a11e                	sh	a5,0(a0)
    2aac:	8082                	ret
    2aae:	07c2                	slli	a5,a5,0x10
    2ab0:	83c1                	srli	a5,a5,0x10
    2ab2:	eff7f793          	andi	a5,a5,-257
    2ab6:	07c2                	slli	a5,a5,0x10
    2ab8:	83c1                	srli	a5,a5,0x10
    2aba:	bfc5                	j	2aaa <I2C_GenerateSTART+0x8>

00002abc <I2C_GenerateSTOP>:
    2abc:	211e                	lhu	a5,0(a0)
    2abe:	c589                	beqz	a1,2ac8 <I2C_GenerateSTOP+0xc>
    2ac0:	2007e793          	ori	a5,a5,512
    2ac4:	a11e                	sh	a5,0(a0)
    2ac6:	8082                	ret
    2ac8:	07c2                	slli	a5,a5,0x10
    2aca:	83c1                	srli	a5,a5,0x10
    2acc:	dff7f793          	andi	a5,a5,-513
    2ad0:	07c2                	slli	a5,a5,0x10
    2ad2:	83c1                	srli	a5,a5,0x10
    2ad4:	bfc5                	j	2ac4 <I2C_GenerateSTOP+0x8>

00002ad6 <I2C_AcknowledgeConfig>:
    2ad6:	211e                	lhu	a5,0(a0)
    2ad8:	c589                	beqz	a1,2ae2 <I2C_AcknowledgeConfig+0xc>
    2ada:	4007e793          	ori	a5,a5,1024
    2ade:	a11e                	sh	a5,0(a0)
    2ae0:	8082                	ret
    2ae2:	07c2                	slli	a5,a5,0x10
    2ae4:	83c1                	srli	a5,a5,0x10
    2ae6:	bff7f793          	andi	a5,a5,-1025
    2aea:	07c2                	slli	a5,a5,0x10
    2aec:	83c1                	srli	a5,a5,0x10
    2aee:	bfc5                	j	2ade <I2C_AcknowledgeConfig+0x8>

00002af0 <I2C_SendData>:
    2af0:	a90e                	sh	a1,16(a0)
    2af2:	8082                	ret

00002af4 <I2C_ReceiveData>:
    2af4:	290a                	lhu	a0,16(a0)
    2af6:	0ff57513          	andi	a0,a0,255
    2afa:	8082                	ret

00002afc <I2C_Send7bitAddress>:
    2afc:	0fe5f793          	andi	a5,a1,254
    2b00:	c219                	beqz	a2,2b06 <I2C_Send7bitAddress+0xa>
    2b02:	0015e793          	ori	a5,a1,1
    2b06:	07c2                	slli	a5,a5,0x10
    2b08:	83c1                	srli	a5,a5,0x10
    2b0a:	a91e                	sh	a5,16(a0)
    2b0c:	8082                	ret

00002b0e <I2C_CheckEvent>:
    2b0e:	295e                	lhu	a5,20(a0)
    2b10:	2d0a                	lhu	a0,24(a0)
    2b12:	0542                	slli	a0,a0,0x10
    2b14:	8d5d                	or	a0,a0,a5
    2b16:	8d6d                	and	a0,a0,a1
    2b18:	0522                	slli	a0,a0,0x8
    2b1a:	8121                	srli	a0,a0,0x8
    2b1c:	8d0d                	sub	a0,a0,a1
    2b1e:	00153513          	seqz	a0,a0
    2b22:	8082                	ret

00002b24 <I2C_GetFlagStatus>:
    2b24:	1161                	addi	sp,sp,-8
    2b26:	c002                	sw	zero,0(sp)
    2b28:	c202                	sw	zero,4(sp)
    2b2a:	01c5d793          	srli	a5,a1,0x1c
    2b2e:	c22a                	sw	a0,4(sp)
    2b30:	c03e                	sw	a5,0(sp)
    2b32:	4782                	lw	a5,0(sp)
    2b34:	05a2                	slli	a1,a1,0x8
    2b36:	81a1                	srli	a1,a1,0x8
    2b38:	cb99                	beqz	a5,2b4e <I2C_GetFlagStatus+0x2a>
    2b3a:	4792                	lw	a5,4(sp)
    2b3c:	07d1                	addi	a5,a5,20
    2b3e:	c23e                	sw	a5,4(sp)
    2b40:	4792                	lw	a5,4(sp)
    2b42:	4388                	lw	a0,0(a5)
    2b44:	0121                	addi	sp,sp,8
    2b46:	8d6d                	and	a0,a0,a1
    2b48:	00a03533          	snez	a0,a0
    2b4c:	8082                	ret
    2b4e:	4792                	lw	a5,4(sp)
    2b50:	81c1                	srli	a1,a1,0x10
    2b52:	07e1                	addi	a5,a5,24
    2b54:	b7ed                	j	2b3e <I2C_GetFlagStatus+0x1a>

00002b56 <NVIC_Init>:
    2b56:	d981a683          	lw	a3,-616(gp) # 200005d0 <NVIC_Priority_Group>
    2b5a:	4785                	li	a5,1
    2b5c:	2118                	lbu	a4,0(a0)
    2b5e:	02f69063          	bne	a3,a5,2b7e <NVIC_Init+0x28>
    2b62:	311c                	lbu	a5,1(a0)
    2b64:	02d79c63          	bne	a5,a3,2b9c <NVIC_Init+0x46>
    2b68:	213c                	lbu	a5,2(a0)
    2b6a:	079a                	slli	a5,a5,0x6
    2b6c:	f807e793          	ori	a5,a5,-128
    2b70:	e000e6b7          	lui	a3,0xe000e
    2b74:	0ff7f793          	andi	a5,a5,255
    2b78:	96ba                	add	a3,a3,a4
    2b7a:	40f68023          	sb	a5,1024(a3) # e000e400 <__global_pointer$+0xc000dbc8>
    2b7e:	4685                	li	a3,1
    2b80:	00575793          	srli	a5,a4,0x5
    2b84:	00e69733          	sll	a4,a3,a4
    2b88:	4154                	lw	a3,4(a0)
    2b8a:	ce89                	beqz	a3,2ba4 <NVIC_Init+0x4e>
    2b8c:	04078793          	addi	a5,a5,64 # 4040 <_data_lma+0x818>
    2b90:	078a                	slli	a5,a5,0x2
    2b92:	e000e6b7          	lui	a3,0xe000e
    2b96:	97b6                	add	a5,a5,a3
    2b98:	c398                	sw	a4,0(a5)
    2b9a:	8082                	ret
    2b9c:	f3ed                	bnez	a5,2b7e <NVIC_Init+0x28>
    2b9e:	213c                	lbu	a5,2(a0)
    2ba0:	079a                	slli	a5,a5,0x6
    2ba2:	b7f9                	j	2b70 <NVIC_Init+0x1a>
    2ba4:	06078793          	addi	a5,a5,96
    2ba8:	b7e5                	j	2b90 <NVIC_Init+0x3a>

00002baa <RCC_AdjustHSICalibrationValue>:
    2baa:	40021737          	lui	a4,0x40021
    2bae:	431c                	lw	a5,0(a4)
    2bb0:	050e                	slli	a0,a0,0x3
    2bb2:	f077f793          	andi	a5,a5,-249
    2bb6:	8d5d                	or	a0,a0,a5
    2bb8:	c308                	sw	a0,0(a4)
    2bba:	8082                	ret

00002bbc <RCC_GetClocksFreq>:
    2bbc:	ce4fd2ef          	jal	t0,a0 <__riscv_save_0>
    2bc0:	40021737          	lui	a4,0x40021
    2bc4:	435c                	lw	a5,4(a4)
    2bc6:	4691                	li	a3,4
    2bc8:	842a                	mv	s0,a0
    2bca:	8bb1                	andi	a5,a5,12
    2bcc:	00d78563          	beq	a5,a3,2bd6 <RCC_GetClocksFreq+0x1a>
    2bd0:	46a1                	li	a3,8
    2bd2:	08d78063          	beq	a5,a3,2c52 <RCC_GetClocksFreq+0x96>
    2bd6:	016e37b7          	lui	a5,0x16e3
    2bda:	60078793          	addi	a5,a5,1536 # 16e3600 <_data_lma+0x16dfdd8>
    2bde:	c01c                	sw	a5,0(s0)
    2be0:	400216b7          	lui	a3,0x40021
    2be4:	42dc                	lw	a5,4(a3)
    2be6:	8391                	srli	a5,a5,0x4
    2be8:	00f7f713          	andi	a4,a5,15
    2bec:	200007b7          	lui	a5,0x20000
    2bf0:	02878793          	addi	a5,a5,40 # 20000028 <APBAHBPrescTable>
    2bf4:	97ba                	add	a5,a5,a4
    2bf6:	238c                	lbu	a1,0(a5)
    2bf8:	42dc                	lw	a5,4(a3)
    2bfa:	4018                	lw	a4,0(s0)
    2bfc:	0ff5f593          	andi	a1,a1,255
    2c00:	0807f793          	andi	a5,a5,128
    2c04:	00b75533          	srl	a0,a4,a1
    2c08:	e781                	bnez	a5,2c10 <RCC_GetClocksFreq+0x54>
    2c0a:	853a                	mv	a0,a4
    2c0c:	cc8fd0ef          	jal	ra,d4 <__udivsi3>
    2c10:	c048                	sw	a0,4(s0)
    2c12:	c408                	sw	a0,8(s0)
    2c14:	c448                	sw	a0,12(s0)
    2c16:	400217b7          	lui	a5,0x40021
    2c1a:	43dc                	lw	a5,4(a5)
    2c1c:	468d                	li	a3,3
    2c1e:	83ad                	srli	a5,a5,0xb
    2c20:	8bfd                	andi	a5,a5,31
    2c22:	0037d713          	srli	a4,a5,0x3
    2c26:	078a                	slli	a5,a5,0x2
    2c28:	8bf1                	andi	a5,a5,28
    2c2a:	8fd9                	or	a5,a5,a4
    2c2c:	0137f613          	andi	a2,a5,19
    2c30:	0037f713          	andi	a4,a5,3
    2c34:	00c6f463          	bgeu	a3,a2,2c3c <RCC_GetClocksFreq+0x80>
    2c38:	ff478713          	addi	a4,a5,-12 # 40020ff4 <__global_pointer$+0x200207bc>
    2c3c:	200007b7          	lui	a5,0x20000
    2c40:	01478793          	addi	a5,a5,20 # 20000014 <ADCPrescTable>
    2c44:	97ba                	add	a5,a5,a4
    2c46:	238c                	lbu	a1,0(a5)
    2c48:	c8cfd0ef          	jal	ra,d4 <__udivsi3>
    2c4c:	c808                	sw	a0,16(s0)
    2c4e:	c5cfd06f          	j	aa <__riscv_restore_0>
    2c52:	435c                	lw	a5,4(a4)
    2c54:	02dc77b7          	lui	a5,0x2dc7
    2c58:	c0078793          	addi	a5,a5,-1024 # 2dc6c00 <_data_lma+0x2dc33d8>
    2c5c:	b749                	j	2bde <RCC_GetClocksFreq+0x22>

00002c5e <RCC_AHBPeriphClockCmd>:
    2c5e:	c599                	beqz	a1,2c6c <RCC_AHBPeriphClockCmd+0xe>
    2c60:	40021737          	lui	a4,0x40021
    2c64:	4b5c                	lw	a5,20(a4)
    2c66:	8d5d                	or	a0,a0,a5
    2c68:	cb48                	sw	a0,20(a4)
    2c6a:	8082                	ret
    2c6c:	400217b7          	lui	a5,0x40021
    2c70:	4bd8                	lw	a4,20(a5)
    2c72:	fff54513          	not	a0,a0
    2c76:	8d79                	and	a0,a0,a4
    2c78:	cbc8                	sw	a0,20(a5)
    2c7a:	8082                	ret

00002c7c <RCC_APB2PeriphClockCmd>:
    2c7c:	c599                	beqz	a1,2c8a <RCC_APB2PeriphClockCmd+0xe>
    2c7e:	40021737          	lui	a4,0x40021
    2c82:	4f1c                	lw	a5,24(a4)
    2c84:	8d5d                	or	a0,a0,a5
    2c86:	cf08                	sw	a0,24(a4)
    2c88:	8082                	ret
    2c8a:	400217b7          	lui	a5,0x40021
    2c8e:	4f98                	lw	a4,24(a5)
    2c90:	fff54513          	not	a0,a0
    2c94:	8d79                	and	a0,a0,a4
    2c96:	cf88                	sw	a0,24(a5)
    2c98:	8082                	ret

00002c9a <RCC_APB1PeriphClockCmd>:
    2c9a:	c599                	beqz	a1,2ca8 <RCC_APB1PeriphClockCmd+0xe>
    2c9c:	40021737          	lui	a4,0x40021
    2ca0:	4f5c                	lw	a5,28(a4)
    2ca2:	8d5d                	or	a0,a0,a5
    2ca4:	cf48                	sw	a0,28(a4)
    2ca6:	8082                	ret
    2ca8:	400217b7          	lui	a5,0x40021
    2cac:	4fd8                	lw	a4,28(a5)
    2cae:	fff54513          	not	a0,a0
    2cb2:	8d79                	and	a0,a0,a4
    2cb4:	cfc8                	sw	a0,28(a5)
    2cb6:	8082                	ret

00002cb8 <SPI_Init>:
    2cb8:	211a                	lhu	a4,0(a0)
    2cba:	678d                	lui	a5,0x3
    2cbc:	04078793          	addi	a5,a5,64 # 3040 <Delay_Ms+0x184>
    2cc0:	21b6                	lhu	a3,2(a1)
    2cc2:	8f7d                	and	a4,a4,a5
    2cc4:	219e                	lhu	a5,0(a1)
    2cc6:	8fd5                	or	a5,a5,a3
    2cc8:	21d6                	lhu	a3,4(a1)
    2cca:	8fd5                	or	a5,a5,a3
    2ccc:	21f6                	lhu	a3,6(a1)
    2cce:	8fd5                	or	a5,a5,a3
    2cd0:	2596                	lhu	a3,8(a1)
    2cd2:	8fd5                	or	a5,a5,a3
    2cd4:	25b6                	lhu	a3,10(a1)
    2cd6:	8fd5                	or	a5,a5,a3
    2cd8:	25d6                	lhu	a3,12(a1)
    2cda:	8fd5                	or	a5,a5,a3
    2cdc:	25f6                	lhu	a3,14(a1)
    2cde:	8fd5                	or	a5,a5,a3
    2ce0:	8fd9                	or	a5,a5,a4
    2ce2:	a11e                	sh	a5,0(a0)
    2ce4:	299e                	lhu	a5,16(a1)
    2ce6:	a91e                	sh	a5,16(a0)
    2ce8:	8082                	ret

00002cea <SPI_Cmd>:
    2cea:	211e                	lhu	a5,0(a0)
    2cec:	c589                	beqz	a1,2cf6 <SPI_Cmd+0xc>
    2cee:	0407e793          	ori	a5,a5,64
    2cf2:	a11e                	sh	a5,0(a0)
    2cf4:	8082                	ret
    2cf6:	07c2                	slli	a5,a5,0x10
    2cf8:	83c1                	srli	a5,a5,0x10
    2cfa:	fbf7f793          	andi	a5,a5,-65
    2cfe:	07c2                	slli	a5,a5,0x10
    2d00:	83c1                	srli	a5,a5,0x10
    2d02:	bfc5                	j	2cf2 <SPI_Cmd+0x8>

00002d04 <SPI_I2S_DMACmd>:
    2d04:	215e                	lhu	a5,4(a0)
    2d06:	c601                	beqz	a2,2d0e <SPI_I2S_DMACmd+0xa>
    2d08:	8ddd                	or	a1,a1,a5
    2d0a:	a14e                	sh	a1,4(a0)
    2d0c:	8082                	ret
    2d0e:	fff5c593          	not	a1,a1
    2d12:	8dfd                	and	a1,a1,a5
    2d14:	bfdd                	j	2d0a <SPI_I2S_DMACmd+0x6>

00002d16 <TIM_TimeBaseInit>:
    2d16:	211e                	lhu	a5,0(a0)
    2d18:	40013737          	lui	a4,0x40013
    2d1c:	c0070713          	addi	a4,a4,-1024 # 40012c00 <__global_pointer$+0x200123c8>
    2d20:	07c2                	slli	a5,a5,0x10
    2d22:	83c1                	srli	a5,a5,0x10
    2d24:	00e50663          	beq	a0,a4,2d30 <TIM_TimeBaseInit+0x1a>
    2d28:	40000737          	lui	a4,0x40000
    2d2c:	00e51663          	bne	a0,a4,2d38 <TIM_TimeBaseInit+0x22>
    2d30:	21ba                	lhu	a4,2(a1)
    2d32:	f8f7f793          	andi	a5,a5,-113
    2d36:	8fd9                	or	a5,a5,a4
    2d38:	21fa                	lhu	a4,6(a1)
    2d3a:	cff7f793          	andi	a5,a5,-769
    2d3e:	07c2                	slli	a5,a5,0x10
    2d40:	83c1                	srli	a5,a5,0x10
    2d42:	8fd9                	or	a5,a5,a4
    2d44:	a11e                	sh	a5,0(a0)
    2d46:	21de                	lhu	a5,4(a1)
    2d48:	b55e                	sh	a5,44(a0)
    2d4a:	219e                	lhu	a5,0(a1)
    2d4c:	b51e                	sh	a5,40(a0)
    2d4e:	400137b7          	lui	a5,0x40013
    2d52:	c0078793          	addi	a5,a5,-1024 # 40012c00 <__global_pointer$+0x200123c8>
    2d56:	00f51463          	bne	a0,a5,2d5e <TIM_TimeBaseInit+0x48>
    2d5a:	259c                	lbu	a5,8(a1)
    2d5c:	b91e                	sh	a5,48(a0)
    2d5e:	4785                	li	a5,1
    2d60:	a95e                	sh	a5,20(a0)
    2d62:	8082                	ret

00002d64 <TIM_OC4Init>:
    2d64:	311a                	lhu	a4,32(a0)
    2d66:	77fd                	lui	a5,0xfffff
    2d68:	17fd                	addi	a5,a5,-1
    2d6a:	8ff9                	and	a5,a5,a4
    2d6c:	b11e                	sh	a5,32(a0)
    2d6e:	02055303          	lhu	t1,32(a0)
    2d72:	215a                	lhu	a4,4(a0)
    2d74:	2d5e                	lhu	a5,28(a0)
    2d76:	76e5                	lui	a3,0xffff9
    2d78:	cff68693          	addi	a3,a3,-769 # ffff8cff <__global_pointer$+0xdfff84c7>
    2d7c:	8efd                	and	a3,a3,a5
    2d7e:	219e                	lhu	a5,0(a1)
    2d80:	01071613          	slli	a2,a4,0x10
    2d84:	21ba                	lhu	a4,2(a1)
    2d86:	07a2                	slli	a5,a5,0x8
    2d88:	8edd                	or	a3,a3,a5
    2d8a:	77f9                	lui	a5,0xffffe
    2d8c:	17fd                	addi	a5,a5,-1
    2d8e:	0067f7b3          	and	a5,a5,t1
    2d92:	0085d303          	lhu	t1,8(a1)
    2d96:	06c2                	slli	a3,a3,0x10
    2d98:	8241                	srli	a2,a2,0x10
    2d9a:	00676733          	or	a4,a4,t1
    2d9e:	0732                	slli	a4,a4,0xc
    2da0:	8fd9                	or	a5,a5,a4
    2da2:	40013737          	lui	a4,0x40013
    2da6:	07c2                	slli	a5,a5,0x10
    2da8:	c0070713          	addi	a4,a4,-1024 # 40012c00 <__global_pointer$+0x200123c8>
    2dac:	82c1                	srli	a3,a3,0x10
    2dae:	83c1                	srli	a5,a5,0x10
    2db0:	00e51b63          	bne	a0,a4,2dc6 <TIM_OC4Init+0x62>
    2db4:	7771                	lui	a4,0xffffc
    2db6:	177d                	addi	a4,a4,-1
    2db8:	8f71                	and	a4,a4,a2
    2dba:	25d2                	lhu	a2,12(a1)
    2dbc:	061a                	slli	a2,a2,0x6
    2dbe:	8f51                	or	a4,a4,a2
    2dc0:	01071613          	slli	a2,a4,0x10
    2dc4:	8241                	srli	a2,a2,0x10
    2dc6:	21fa                	lhu	a4,6(a1)
    2dc8:	a152                	sh	a2,4(a0)
    2dca:	ad56                	sh	a3,28(a0)
    2dcc:	c138                	sw	a4,64(a0)
    2dce:	b11e                	sh	a5,32(a0)
    2dd0:	8082                	ret

00002dd2 <TIM_CtrlPWMOutputs>:
    2dd2:	04455783          	lhu	a5,68(a0)
    2dd6:	c591                	beqz	a1,2de2 <TIM_CtrlPWMOutputs+0x10>
    2dd8:	6721                	lui	a4,0x8
    2dda:	8fd9                	or	a5,a5,a4
    2ddc:	04f51223          	sh	a5,68(a0)
    2de0:	8082                	ret
    2de2:	07c6                	slli	a5,a5,0x11
    2de4:	83c5                	srli	a5,a5,0x11
    2de6:	bfdd                	j	2ddc <TIM_CtrlPWMOutputs+0xa>

00002de8 <TIM_ITConfig>:
    2de8:	255e                	lhu	a5,12(a0)
    2dea:	c601                	beqz	a2,2df2 <TIM_ITConfig+0xa>
    2dec:	8ddd                	or	a1,a1,a5
    2dee:	a54e                	sh	a1,12(a0)
    2df0:	8082                	ret
    2df2:	fff5c593          	not	a1,a1
    2df6:	8dfd                	and	a1,a1,a5
    2df8:	bfdd                	j	2dee <TIM_ITConfig+0x6>

00002dfa <TIM_ARRPreloadConfig>:
    2dfa:	211e                	lhu	a5,0(a0)
    2dfc:	c589                	beqz	a1,2e06 <TIM_ARRPreloadConfig+0xc>
    2dfe:	0807e793          	ori	a5,a5,128
    2e02:	a11e                	sh	a5,0(a0)
    2e04:	8082                	ret
    2e06:	07c2                	slli	a5,a5,0x10
    2e08:	83c1                	srli	a5,a5,0x10
    2e0a:	f7f7f793          	andi	a5,a5,-129
    2e0e:	07c2                	slli	a5,a5,0x10
    2e10:	83c1                	srli	a5,a5,0x10
    2e12:	bfc5                	j	2e02 <TIM_ARRPreloadConfig+0x8>

00002e14 <TIM_OC4PreloadConfig>:
    2e14:	2d5a                	lhu	a4,28(a0)
    2e16:	77fd                	lui	a5,0xfffff
    2e18:	7ff78793          	addi	a5,a5,2047 # fffff7ff <__global_pointer$+0xdfffefc7>
    2e1c:	8ff9                	and	a5,a5,a4
    2e1e:	05a2                	slli	a1,a1,0x8
    2e20:	8fcd                	or	a5,a5,a1
    2e22:	07c2                	slli	a5,a5,0x10
    2e24:	83c1                	srli	a5,a5,0x10
    2e26:	ad5e                	sh	a5,28(a0)
    2e28:	8082                	ret

00002e2a <TIM_GetITStatus>:
    2e2a:	291e                	lhu	a5,16(a0)
    2e2c:	254a                	lhu	a0,12(a0)
    2e2e:	8fed                	and	a5,a5,a1
    2e30:	0542                	slli	a0,a0,0x10
    2e32:	8141                	srli	a0,a0,0x10
    2e34:	c789                	beqz	a5,2e3e <TIM_GetITStatus+0x14>
    2e36:	8d6d                	and	a0,a0,a1
    2e38:	00a03533          	snez	a0,a0
    2e3c:	8082                	ret
    2e3e:	4501                	li	a0,0
    2e40:	8082                	ret

00002e42 <TIM_ClearITPendingBit>:
    2e42:	fff5c593          	not	a1,a1
    2e46:	05c2                	slli	a1,a1,0x10
    2e48:	81c1                	srli	a1,a1,0x10
    2e4a:	a90e                	sh	a1,16(a0)
    2e4c:	8082                	ret

00002e4e <Delay_Init>:
    2e4e:	a52fd2ef          	jal	t0,a0 <__riscv_save_0>
    2e52:	200007b7          	lui	a5,0x20000
    2e56:	0107a503          	lw	a0,16(a5) # 20000010 <SystemCoreClock>
    2e5a:	007a15b7          	lui	a1,0x7a1
    2e5e:	20058593          	addi	a1,a1,512 # 7a1200 <_data_lma+0x79d9d8>
    2e62:	a72fd0ef          	jal	ra,d4 <__udivsi3>
    2e66:	0ff57513          	andi	a0,a0,255
    2e6a:	d8a18f23          	sb	a0,-610(gp) # 200005d6 <p_us>
    2e6e:	00551793          	slli	a5,a0,0x5
    2e72:	8f89                	sub	a5,a5,a0
    2e74:	078a                	slli	a5,a5,0x2
    2e76:	953e                	add	a0,a0,a5
    2e78:	050e                	slli	a0,a0,0x3
    2e7a:	d8a19e23          	sh	a0,-612(gp) # 200005d4 <p_ms>
    2e7e:	a2cfd06f          	j	aa <__riscv_restore_0>

00002e82 <Delay_Us>:
    2e82:	a1efd2ef          	jal	t0,a0 <__riscv_save_0>
    2e86:	e000f437          	lui	s0,0xe000f
    2e8a:	405c                	lw	a5,4(s0)
    2e8c:	85aa                	mv	a1,a0
    2e8e:	9bf9                	andi	a5,a5,-2
    2e90:	c05c                	sw	a5,4(s0)
    2e92:	d9e1c503          	lbu	a0,-610(gp) # 200005d6 <p_us>
    2e96:	a1efd0ef          	jal	ra,b4 <__mulsi3>
    2e9a:	c808                	sw	a0,16(s0)
    2e9c:	00042423          	sw	zero,8(s0) # e000f008 <__global_pointer$+0xc000e7d0>
    2ea0:	401c                	lw	a5,0(s0)
    2ea2:	0017e793          	ori	a5,a5,1
    2ea6:	c01c                	sw	a5,0(s0)
    2ea8:	e000f7b7          	lui	a5,0xe000f
    2eac:	43d8                	lw	a4,4(a5)
    2eae:	8b05                	andi	a4,a4,1
    2eb0:	df75                	beqz	a4,2eac <Delay_Us+0x2a>
    2eb2:	4398                	lw	a4,0(a5)
    2eb4:	9b79                	andi	a4,a4,-2
    2eb6:	c398                	sw	a4,0(a5)
    2eb8:	9f2fd06f          	j	aa <__riscv_restore_0>

00002ebc <Delay_Ms>:
    2ebc:	9e4fd2ef          	jal	t0,a0 <__riscv_save_0>
    2ec0:	e000f437          	lui	s0,0xe000f
    2ec4:	405c                	lw	a5,4(s0)
    2ec6:	85aa                	mv	a1,a0
    2ec8:	9bf9                	andi	a5,a5,-2
    2eca:	c05c                	sw	a5,4(s0)
    2ecc:	d9c1d503          	lhu	a0,-612(gp) # 200005d4 <p_ms>
    2ed0:	9e4fd0ef          	jal	ra,b4 <__mulsi3>
    2ed4:	c808                	sw	a0,16(s0)
    2ed6:	00042423          	sw	zero,8(s0) # e000f008 <__global_pointer$+0xc000e7d0>
    2eda:	401c                	lw	a5,0(s0)
    2edc:	0017e793          	ori	a5,a5,1
    2ee0:	c01c                	sw	a5,0(s0)
    2ee2:	e000f7b7          	lui	a5,0xe000f
    2ee6:	43d8                	lw	a4,4(a5)
    2ee8:	8b05                	andi	a4,a4,1
    2eea:	df75                	beqz	a4,2ee6 <Delay_Ms+0x2a>
    2eec:	4398                	lw	a4,0(a5)
    2eee:	9b79                	andi	a4,a4,-2
    2ef0:	c398                	sw	a4,0(a5)
    2ef2:	9b8fd06f          	j	aa <__riscv_restore_0>
    2ef6:	0000                	unimp
    2ef8:	05f0                	addi	a2,sp,716
    2efa:	0000                	unimp
    2efc:	064a                	slli	a2,a2,0x12
    2efe:	0000                	unimp
    2f00:	0638                	addi	a4,sp,776
    2f02:	0000                	unimp
    2f04:	064a                	slli	a2,a2,0x12
    2f06:	0000                	unimp
    2f08:	064a                	slli	a2,a2,0x12
    2f0a:	0000                	unimp
    2f0c:	064a                	slli	a2,a2,0x12
    2f0e:	0000                	unimp
    2f10:	064a                	slli	a2,a2,0x12
    2f12:	0000                	unimp
    2f14:	064a                	slli	a2,a2,0x12
    2f16:	0000                	unimp
    2f18:	064a                	slli	a2,a2,0x12
    2f1a:	0000                	unimp
    2f1c:	064a                	slli	a2,a2,0x12
    2f1e:	0000                	unimp
    2f20:	064a                	slli	a2,a2,0x12
    2f22:	0000                	unimp
    2f24:	064a                	slli	a2,a2,0x12
    2f26:	0000                	unimp
    2f28:	064a                	slli	a2,a2,0x12
    2f2a:	0000                	unimp
    2f2c:	064a                	slli	a2,a2,0x12
    2f2e:	0000                	unimp
    2f30:	064a                	slli	a2,a2,0x12
    2f32:	0000                	unimp
    2f34:	064a                	slli	a2,a2,0x12
    2f36:	0000                	unimp
    2f38:	064a                	slli	a2,a2,0x12
    2f3a:	0000                	unimp
    2f3c:	064a                	slli	a2,a2,0x12
    2f3e:	0000                	unimp
    2f40:	064a                	slli	a2,a2,0x12
    2f42:	0000                	unimp
    2f44:	064a                	slli	a2,a2,0x12
    2f46:	0000                	unimp
    2f48:	064a                	slli	a2,a2,0x12
    2f4a:	0000                	unimp
    2f4c:	064a                	slli	a2,a2,0x12
    2f4e:	0000                	unimp
    2f50:	064a                	slli	a2,a2,0x12
    2f52:	0000                	unimp
    2f54:	064a                	slli	a2,a2,0x12
    2f56:	0000                	unimp
    2f58:	064a                	slli	a2,a2,0x12
    2f5a:	0000                	unimp
    2f5c:	064a                	slli	a2,a2,0x12
    2f5e:	0000                	unimp
    2f60:	064a                	slli	a2,a2,0x12
    2f62:	0000                	unimp
    2f64:	064a                	slli	a2,a2,0x12
    2f66:	0000                	unimp
    2f68:	064a                	slli	a2,a2,0x12
    2f6a:	0000                	unimp
    2f6c:	064a                	slli	a2,a2,0x12
    2f6e:	0000                	unimp
    2f70:	064a                	slli	a2,a2,0x12
    2f72:	0000                	unimp
    2f74:	064a                	slli	a2,a2,0x12
    2f76:	0000                	unimp
    2f78:	064a                	slli	a2,a2,0x12
    2f7a:	0000                	unimp
    2f7c:	064a                	slli	a2,a2,0x12
    2f7e:	0000                	unimp
    2f80:	064a                	slli	a2,a2,0x12
    2f82:	0000                	unimp
    2f84:	064a                	slli	a2,a2,0x12
    2f86:	0000                	unimp
    2f88:	064a                	slli	a2,a2,0x12
    2f8a:	0000                	unimp
    2f8c:	064a                	slli	a2,a2,0x12
    2f8e:	0000                	unimp
    2f90:	064a                	slli	a2,a2,0x12
    2f92:	0000                	unimp
    2f94:	064a                	slli	a2,a2,0x12
    2f96:	0000                	unimp
    2f98:	064a                	slli	a2,a2,0x12
    2f9a:	0000                	unimp
    2f9c:	064a                	slli	a2,a2,0x12
    2f9e:	0000                	unimp
    2fa0:	064a                	slli	a2,a2,0x12
    2fa2:	0000                	unimp
    2fa4:	064a                	slli	a2,a2,0x12
    2fa6:	0000                	unimp
    2fa8:	064a                	slli	a2,a2,0x12
    2faa:	0000                	unimp
    2fac:	064a                	slli	a2,a2,0x12
    2fae:	0000                	unimp
    2fb0:	064a                	slli	a2,a2,0x12
    2fb2:	0000                	unimp
    2fb4:	064a                	slli	a2,a2,0x12
    2fb6:	0000                	unimp
    2fb8:	064a                	slli	a2,a2,0x12
    2fba:	0000                	unimp
    2fbc:	064a                	slli	a2,a2,0x12
    2fbe:	0000                	unimp
    2fc0:	064a                	slli	a2,a2,0x12
    2fc2:	0000                	unimp
    2fc4:	064a                	slli	a2,a2,0x12
    2fc6:	0000                	unimp
    2fc8:	064a                	slli	a2,a2,0x12
    2fca:	0000                	unimp
    2fcc:	061a                	slli	a2,a2,0x6
    2fce:	0000                	unimp
    2fd0:	0620                	addi	s0,sp,776
    2fd2:	0000                	unimp
    2fd4:	05ea                	slli	a1,a1,0x1a
    2fd6:	0000                	unimp
    2fd8:	0602                	c.slli64	a2
    2fda:	0000                	unimp
    2fdc:	0614                	addi	a3,sp,768
    2fde:	0000                	unimp
    2fe0:	05fc                	addi	a5,sp,716
    2fe2:	0000                	unimp
    2fe4:	05a8                	addi	a0,sp,712
    2fe6:	0000                	unimp
    2fe8:	05ba                	slli	a1,a1,0xe
    2fea:	0000                	unimp
    2fec:	05ae                	slli	a1,a1,0xb
    2fee:	0000                	unimp
    2ff0:	0632                	slli	a2,a2,0xc
    2ff2:	0000                	unimp
    2ff4:	05cc                	addi	a1,sp,708
    2ff6:	0000                	unimp
    2ff8:	05b4                	addi	a3,sp,712
    2ffa:	0000                	unimp
    2ffc:	0608                	addi	a0,sp,768
    2ffe:	0000                	unimp
    3000:	05d8                	addi	a4,sp,708
    3002:	0000                	unimp
    3004:	0626                	slli	a2,a2,0x9
    3006:	0000                	unimp
    3008:	0596                	slli	a1,a1,0x5
    300a:	0000                	unimp
    300c:	062c                	addi	a1,sp,776
    300e:	0000                	unimp
    3010:	05d2                	slli	a1,a1,0x14
    3012:	0000                	unimp
    3014:	05f6                	slli	a1,a1,0x1d
    3016:	0000                	unimp
    3018:	05a2                	slli	a1,a1,0x8
    301a:	0000                	unimp
    301c:	059c                	addi	a5,sp,704
    301e:	0000                	unimp
    3020:	05de                	slli	a1,a1,0x17
    3022:	0000                	unimp
    3024:	05e4                	addi	s1,sp,716
    3026:	0000                	unimp
    3028:	05c6                	slli	a1,a1,0x11
    302a:	0000                	unimp
    302c:	05c0                	addi	s0,sp,708
    302e:	0000                	unimp
    3030:	060e                	slli	a2,a2,0x3
    3032:	0000                	unimp
    3034:	1b62                	slli	s6,s6,0x38
    3036:	0000                	unimp
    3038:	1b68                	addi	a0,sp,444
    303a:	0000                	unimp
    303c:	1b72                	slli	s6,s6,0x3c
    303e:	0000                	unimp
    3040:	1b7a                	slli	s6,s6,0x3e
    3042:	0000                	unimp
    3044:	1b80                	addi	s0,sp,496
    3046:	0000                	unimp
    3048:	1b86                	slli	s7,s7,0x21
	...

0000304c <CSWTCH.344>:
    304c:	006f 0065 0000 0000 0000 0067 0000 0000     o.e.......g.....
    305c:	0000 0074 0000 0061 0000 0075 0000 0000     ..t...a...u.....
    306c:	006b 0078 0000 0000 0000 0062 0000 0000     k.x.......b.....
    307c:	0000 0076 0000 007a 0000 006d 0000 0000     ..v...z...m.....
	...
    30ac:	0000 0063 0000 0000 0000 006e 0000 0000     ..c.......n.....
	...
    30d0:	0000 0071 0000 0079 0000 0000 0070 0072     ..q...y.....p.r.
    30e0:	0000 0077 0000 0000 0000 0000 0069 0064     ..w.........i.d.
    30f0:	0000 0000 0000 0068 0000 0000 006c 0066     ......h.....l.f.
    3100:	0000 0073 0000 006a                         ..s...j.

00003108 <CharTable>:
    3108:	0800 1414 3014 0408 1004 0000 0000 0000     .....0..........
    3118:	081c 3e1c 3e04 3e0e 1c1c 0000 0004 1c10     ...>.>.>........
    3128:	081c 1c3c 3e3c 1c3e 1c22 2202 2220 1c22     ..<.<>>.".." "".
    3138:	1c3c 1c3c 223e 2222 2222 383e 0e00 001c     <.<.>""""">8....
    3148:	0008 0020 0002 000c 0820 2004 0018 0000     .. ..... .. ....
    3158:	0000 0000 0010 0000 0000 0400 0808 001a     ................
    3168:	0f00 fff0 0f00 fff0 0f00 fff0 0f00 fff0     ................
    3178:	0000 1818 1818 1800 0000 1818 0018 aa18     ................
    3188:	0800 1414 321e 0414 0808 0808 0000 0200     .....2..........
    3198:	1822 0222 200c 0210 2222 0000 0008 2208     ".".. ..""....."
    31a8:	1422 2222 2012 2020 0822 2402 3620 2222     "."".   "..$ 6""
    31b8:	2222 2222 2208 2222 2222 2002 0220 0022     """".""""".  .".
    31c8:	0008 0020 0002 1e12 0020 2000 0008 0000     .. ..... .. ....
    31d8:	0000 0000 0010 0000 0000 0800 0408 002c     ..............,.
    31e8:	0f00 fff0 0f00 fff0 0f00 fff0 0f00 fff0     ................
    31f8:	0000 1818 1818 1800 0000 300c 0018 5518     ...........0...U
    3208:	0800 3e14 0420 0814 0410 082a 0000 0400     ...> .....*.....
    3218:	0826 0402 3c14 0420 2222 1000 3e10 0204     &....< .""...>..
    3228:	2202 2022 2012 2020 0822 2802 2a20 2232     ."" .   "..( *2"
    3238:	2222 2022 2208 2222 1414 2004 0210 0000     """ ."""... ....
    3248:	1c08 1c2c 1c1a 2210 182c 240c 3408 1c2c     ..,....",..$.4,.
    3258:	1a3c 1c2c 2238 2222 2222 083e 0408 0000     <.,.8""""">.....
    3268:	0f00 fff0 0f00 fff0 0f00 fff0 0f00 fff0     ................
    3278:	0000 1818 1818 1800 0000 6006 0018 aa18     ...........`....
    3288:	0800 1400 081c 0018 0410 3e1c 3e00 0800     ...........>.>..
    3298:	082a 0c0c 0224 083c 1e1c 0000 0020 0402     *...$.<..... ...
    32a8:	221a 203c 3c12 203c 083e 3002 2a20 222a     ."< .<< >..0 **"
    32b8:	223c 1c3c 2208 2a14 0808 2008 0208 0000     <"<..".*... ....
    32c8:	0200 2032 2226 2238 0832 2804 2a08 2232     ..2 &"8"2..(.*2"
    32d8:	2622 2032 2210 2222 2214 1004 0208 0000     "&2 ."""."......
    32e8:	0f00 fff0 0f00 fff0 0f00 fff0 0f00 fff0     ................
    32f8:	f81f f81f f81f ffff 8001 c003 ff18 55ff     ...............U
    3308:	0800 3e00 1002 002a 0410 082a 0010 1000     ...>..*...*.....
    3318:	0832 0210 023e 1022 0222 1010 3e10 0804     2...>."."....>..
    3328:	3e2a 2022 2012 2620 0822 2822 2220 2226     *>" .  &"."( "&"
    3338:	2a20 0228 2208 2a14 0814 2010 0204 0000      *(..".*... ....
    3348:	1e00 2022 3e22 1e10 0822 3004 2a08 2222     .." ">.."..0.*""
    3358:	1e3c 1c20 2210 2a22 1e08 0808 0408 0000     <. ..""*........
    3368:	0000 0000 f0f0 f0f0 0f0f 0f0f ffff ffff     ................
    3378:	f81f f81f f81f ffff c003 8001 ff18 aaff     ................
    3388:	0000 1400 263c 0024 0808 0808 0010 2000     ....<&$........ 
    3398:	0822 2220 2204 1022 0422 1000 0008 0008     ". "."".".......
    33a8:	222a 2222 2012 2220 0822 2422 2220 2222     *""".  ""."$ """
    33b8:	2420 2224 2208 2a08 0822 2020 0202 0000      $$".".*".  ....
    33c8:	2200 2222 2022 0210 0822 2824 2208 2222     ."""" ..".$(."""
    33d8:	0220 0220 2612 2a14 0214 0810 0408 0000      . ..&.*........
    33e8:	0000 0000 f0f0 f0f0 0f0f 0f0f ffff ffff     ................
    33f8:	1818 0000 1818 0018 6006 0000 0018 5518     .........`.....U
    3408:	0800 1400 0614 001a 1004 0000 0020 0010     ............ ...
    3418:	1c1c 1c3e 1c04 101c 381c 2010 0004 0810     ..>......8. ....
    3428:	221c 1c3c 3e3c 1e20 1c22 221c 223e 1c22     ."<.<> ."..">"".
    3438:	1a20 1c22 1c08 1408 0822 383e 0e00 3e00      .".....".>8...>
    3448:	1e00 1c3c 1c1e 1c10 1c22 2418 221c 1c22     ..<....."..$."".
    3458:	0220 3c20 1a0c 1408 1c22 043e 0808 0000      . <....".>.....
    3468:	0000 0000 f0f0 f0f0 0f0f 0f0f ffff ffff     ................
    3478:	1818 0000 1818 0018 300c 0000 0018 aa18     .........0......
	...
    34e8:	00ff 0000 f0f0 f0f0 0f0f 0f0f ffff ffff     ................
    34f8:	1818 0000 1818 0018 1818 0000 0018 5518     ...............U

00003508 <KeyWordTab>:
    3508:	5006 4952 544e 0020 4903 2046 0000 0000     .PRINT ..IF ....
    3518:	5405 4548 204e 0000 4705 544f 204f 0000     .THEN ...GOTO ..
    3528:	4906 504e 5455 0020 4c04 5445 0020 0000     .INPUT ..LET ...
    3538:	4706 534f 4255 0020 5207 5445 5255 204e     .GOSUB ..RETURN 
    3548:	4306 454c 5241 0020 4c05 5349 2054 0000     .CLEAR ..LIST ..
    3558:	5204 4e55 0020 0000 4504 444e 0020 0000     .RUN ....END ...
    3568:	5405 4d49 2045 0000 4307 5255 4f53 2052     .TIME ...CURSOR 
    3578:	5006 5455 4843 0020 4706 5445 4843 0020     .PUTCH ..GETCH .
    3588:	4906 4b4e 5945 0020 4605 4c49 2045 0000     .INKEY ..FILE ..
    3598:	4405 5349 204b 0000 4406 4c45 5941 0020     .DISK ...DELAY .
    35a8:	4205 4545 2050 0000 5204 4d45 0020 0000     .BEEP ...REM ...
    35b8:	4105 4e49 2050 0000 4405 4e49 2050 0000     .AINP ...DINP ..
    35c8:	4405 554f 2054 0000 4905 4332 2057 0000     .DOUT ...I2CW ..
    35d8:	4905 4332 2052 0000 4305 504f 2059 0000     .I2CR ...COPY ..
    35e8:	7250 7365 2073 6e61 2079 656b 2e79 2e2e     Press any key...
    35f8:	0000 0000 7245 6f72 2072 6176 756c 2165     ....Error value!
    3608:	0000 0000 694d 7373 6e69 2067 003d 0000     ....Missing =...
    3618:	694d 7373 6e69 2067 6176 6972 6261 656c     Missing variable
    3628:	0021 0000 694c 656e 6e20 6d75 6562 2072     !...Line number 
    3638:	564f 2152 0000 0000 6f4e 7220 7465 7275     OVR!....No retur
    3648:	216e 0000 6e49 6573 7472 0020 003a 0000     n!..Insert .:...
    3658:	6f4e 5420 4548 004e 704f 7265 7461 726f     No THEN.Operator
    3668:	6520 7272 726f 0000 6f4e 3220 202e 7865      error..No 2. ex
    3678:	7270 0000 6f4e 3120 202e 7865 7270 0000     pr..No 1. expr..
    3688:	7245 2072 6f70 6973 2174 0000 694d 7373     Err posit!..Miss
    3698:	6e69 2067 002c 0000 694d 7373 6e69 2067     ing ,...Missing 
    36a8:	6176 756c 2165 0000 7245 2072 6170 6172     value!..Err para
    36b8:	216d 0000 7245 6f72 2072 6954 656d 0021     m!..Error Time!.
    36c8:	7245 6f72 2072 7246 7165 0021 764f 7265     Error Freq!.Over
    36d8:	7220 6e61 6567 0021 7245 6f72 2072 6f43      range!.Error Co
    36e8:	6e75 2174 0000 0000 7245 6f72 2072 6154     unt!....Error Ta
    36f8:	6772 7465 0021 0000 7245 6f72 2072 6f53     rget!...Error So
    3708:	7275 6563 0021 0000 6f4e 6620 4420 5349     urce!...No f DIS
    3718:	214b 0000 430a 706f 2079 6f74 6420 7369     K!...Copy to dis
    3728:	206b 0000 6f4e 6620 6c69 2065 756e 626d     k ..No file numb
    3738:	7265 0021 7245 6f72 2072 6170 6172 656d     er!.Error parame
    3748:	6574 0072 7245 6f72 2072 6e49 7570 2174     ter.Error Input!
    3758:	0000 0000 7245 6f72 2072 6176 6972 6261     ....Error variab
    3768:	656c 0021 7245 6f72 2072 754f 7074 7475     le!.Error Output
    3778:	0021 0000 6f6e 7320 6375 2068 6f63 6d6d     !...no such comm
    3788:	6e61 2164 0000 0000 655a 6f72 6420 7669     and!....Zero div
    3798:	0021 0000 694d 7373 6e69 2067 706f 7265     !...Missing oper
    37a8:	6e61 2164 0000 0000 754f 2074 666f 6120     and!....Out of a
    37b8:	7272 7961 0021 0000 6e49 6564 2078 7265     rray!...Index er
    37c8:	6f72 2172 0000 0000 6954 796e 6142 6973     ror!....TinyBasi
    37d8:	2063 2e31 0030 0000 6f4e 4420 5349 204b     c 1.0...No DISK 
    37e8:	2c66 0020 6f4e 5020 4643 3538 3537 202c     f, .No PCF8575, 
    37f8:	0000 0000 7845 2074 7458 6c61 0000 0000     ....Ext Xtal....
    3808:	2020 2020 0000 0000 7245 6f72 2072 696c         ....Error li
    3818:	656e 6e20 6d75 6562 2172 0000 4f0a 004b     ne number!...OK.
